MODULE Mac x86_64 509C0610949836F7B70BD88BCF03E5400 crash-client
INFO CODE_ID 509C0610949836F7B70BD88BCF03E540
PUBLIC 0 0 _mh_execute_header
FUNC m dd0 8b 0 alloc::raw_vec::finish_grow::<alloc::alloc::Global>
FUNC m e60 b4 0 <alloc::raw_vec::RawVec<std::thread::JoinHandle<()>>>::reserve_for_push
FUNC m f20 1c 0 alloc::alloc::box_free::<dyn std::error::Error + core::marker::Send + core::marker::Sync, alloc::alloc::Global>
FUNC m f40 14 0 alloc::alloc::box_free::<clap::error::ErrorInner, alloc::alloc::Global>
FUNC m f60 14 0 alloc::alloc::box_free::<std::io::error::Custom, alloc::alloc::Global>
FUNC m f80 14 0 alloc::alloc::box_free::<clap::parser::matches::arg_matches::SubCommand, alloc::alloc::Global>
FUNC m fa0 1a 0 core::ptr::drop_in_place::<core::option::Option<alloc::sync::Arc<std::sync::mutex::Mutex<dyn for<'a> core::ops::function::FnMut<(&'a std::ffi::os_str::OsStr,), Output = core::result::Result<(), alloc::boxed::Box<dyn std::error::Error + core::marker::Send + core::marker::Sync>>> + core::marker::Send>>>>
FUNC m fc0 1a 0 core::ptr::drop_in_place::<core::option::Option<alloc::sync::Arc<std::sync::mutex::Mutex<dyn for<'a> core::ops::function::FnMut<(&'a str,), Output = core::result::Result<(), alloc::boxed::Box<dyn std::error::Error + core::marker::Send + core::marker::Sync>>> + core::marker::Send>>>>
FUNC m fe0 51 0 core::ptr::drop_in_place::<core::option::Option<alloc::boxed::Box<dyn std::error::Error + core::marker::Send + core::marker::Sync>>>
FUNC m 1040 63 0 core::ptr::drop_in_place::<core::option::Option<alloc::boxed::Box<clap::parser::matches::arg_matches::SubCommand>>>
FUNC m 10b0 a1 0 core::ptr::drop_in_place::<core::option::Option<clap::error::Message>>
FUNC m 1160 24 0 core::ptr::drop_in_place::<core::result::Result<crash_handler::mac::CrashHandler, crash_handler::error::Error>>
FUNC m 1190 4c 0 core::ptr::drop_in_place::<alloc::vec::Vec<std::thread::JoinHandle<()>>>
FUNC m 11e0 85 0 core::ptr::drop_in_place::<alloc::vec::Vec<alloc::string::String>>
FUNC m 1270 8d 0 core::ptr::drop_in_place::<alloc::vec::Vec<clap::mkeymap::Key>>
FUNC m 1300 28 0 core::ptr::drop_in_place::<alloc::vec::Vec<clap::util::id::Id>>
FUNC m 1330 98 0 core::ptr::drop_in_place::<alloc::vec::Vec<clap::builder::possible_value::PossibleValue>>
FUNC m 13d0 b6 0 core::ptr::drop_in_place::<alloc::vec::Vec<clap::builder::command::App>>
FUNC m 1490 d6 0 core::ptr::drop_in_place::<alloc::vec::Vec<clap::builder::arg_group::ArgGroup>>
FUNC m 1570 28 0 core::ptr::drop_in_place::<alloc::vec::Vec<&std::ffi::os_str::OsStr>>
FUNC m 15a0 28 0 core::ptr::drop_in_place::<alloc::vec::Vec<(clap::util::id::Id, clap::builder::arg_predicate::ArgPredicate, core::option::Option<&std::ffi::os_str::OsStr>)>>
FUNC m 15d0 28 0 core::ptr::drop_in_place::<alloc::vec::Vec<(clap::util::id::Id, &str)>>
FUNC m 1600 28 0 core::ptr::drop_in_place::<alloc::vec::Vec<(char, bool)>>
FUNC m 1630 15 0 core::ptr::drop_in_place::<alloc::sync::Arc<std::thread::Packet<()>>>
FUNC m 1650 46 0 core::ptr::drop_in_place::<alloc::sync::ArcInner<std::sync::mutex::Mutex<<clap::builder::arg::Arg>::validator<<crash_client::Command as clap::derive::Args>::augment_args::{closure#0}, (), core::convert::Infallible>::{closure#0}>>>
FUNC m 16a0 4c 0 core::ptr::drop_in_place::<alloc::boxed::Box<dyn core::any::Any + core::marker::Send>>
FUNC m 16f0 28 0 core::ptr::drop_in_place::<alloc::raw_vec::RawVec<indexmap::Bucket<clap::util::id::Id, clap::parser::matches::matched_arg::MatchedArg>>>
FUNC m 1720 28 0 core::ptr::drop_in_place::<alloc::raw_vec::RawVec<std::thread::JoinHandle<()>>>
FUNC m 1750 28 0 core::ptr::drop_in_place::<alloc::raw_vec::RawVec<clap::builder::arg::Arg>>
FUNC m 1780 28 0 core::ptr::drop_in_place::<alloc::raw_vec::RawVec<clap::builder::command::App>>
FUNC m 17b0 28 0 core::ptr::drop_in_place::<alloc::raw_vec::RawVec<(clap::error::context::ContextKind, clap::error::context::ContextValue)>>
FUNC m 17e0 6b 0 core::ptr::drop_in_place::<std::thread::JoinHandle<()>>
FUNC m 1850 36 0 core::ptr::drop_in_place::<std::collections::hash::map::HashMap<&str, &[&str]>>
FUNC m 1890 a 0 core::ptr::drop_in_place::<crash_handler::make_crash_event::Wrapper<crash_client::real_main::{closure#0}>>
FUNC m 18a0 6 0 core::ptr::drop_in_place::<<clap::builder::arg::Arg>::validator<<crash_client::Command as clap::derive::Args>::augment_args::{closure#0}, (), core::convert::Infallible>::{closure#0}>
FUNC m 18b0 1d 0 core::ptr::drop_in_place::<crash_client::Command>
FUNC m 18d0 a 0 core::ptr::drop_in_place::<anyhow::Error>
FUNC m 18e0 1d 0 core::ptr::drop_in_place::<alloc::string::String>
FUNC m 1900 95 0 core::ptr::drop_in_place::<std::env::ArgsOs>
FUNC m 19a0 15 0 core::ptr::drop_in_place::<std::thread::Thread>
FUNC m 19c0 1ed 0 core::ptr::drop_in_place::<clap::error::Error>
FUNC m 1bb0 137 0 core::ptr::drop_in_place::<clap::mkeymap::MKeyMap>
FUNC m 1cf0 124 0 core::ptr::drop_in_place::<minidumper::errors::Error>
FUNC m 1e20 90 0 core::ptr::drop_in_place::<std::io::error::Error>
FUNC m 1eb0 42b 0 core::ptr::drop_in_place::<clap::builder::arg::Arg>
FUNC m 22e0 2f7 0 core::ptr::drop_in_place::<clap::builder::command::App>
FUNC m 25e0 151 0 core::ptr::drop_in_place::<clap::parser::matches::arg_matches::ArgMatches>
FUNC m 2740 8 0 <clap::builder::arg::Arg>::validator::<<crash_client::Command as clap::derive::Args>::augment_args::{closure#0}, (), core::convert::Infallible>::{closure#0}
FUNC m 2750 8 0 <<clap::builder::arg::Arg>::validator<<crash_client::Command as clap::derive::Args>::augment_args::{closure#0}, (), core::convert::Infallible>::{closure#0} as core::ops::function::FnOnce<(&str,)>>::call_once::{shim:vtable#0}
FUNC m 2760 b 0 sadness_generator::raise_stack_overflow_in_non_rust_thread_normal
FUNC m 2770 c68 0 <crash_client::Command as clap::derive::CommandFactory>::command
FUNC m 33e0 17 0 <alloc::string::String as core::fmt::Display>::fmt
FUNC m 3400 fcb 0 crash_client::main
PUBLIC 43f0 0 main
FUNC m 4420 41f 0 <clap::builder::command::App>::get_matches_from::<&mut std::env::ArgsOs, std::ffi::os_str::OsString>
FUNC m 4840 117 0 <clap::builder::command::App>::arg::<clap::builder::arg::Arg>
FUNC m 4960 1c 0 alloc::alloc::box_free::<dyn std::error::Error + core::marker::Send + core::marker::Sync, alloc::alloc::Global>
FUNC m 4980 14 0 alloc::alloc::box_free::<clap::error::ErrorInner, alloc::alloc::Global>
FUNC m 49a0 1a 0 core::ptr::drop_in_place::<core::option::Option<alloc::sync::Arc<std::sync::mutex::Mutex<dyn for<'a> core::ops::function::FnMut<(&'a std::ffi::os_str::OsStr,), Output = core::result::Result<(), alloc::boxed::Box<dyn std::error::Error + core::marker::Send + core::marker::Sync>>> + core::marker::Send>>>>
FUNC m 49c0 1a 0 core::ptr::drop_in_place::<core::option::Option<alloc::sync::Arc<std::sync::mutex::Mutex<dyn for<'a> core::ops::function::FnMut<(&'a str,), Output = core::result::Result<(), alloc::boxed::Box<dyn std::error::Error + core::marker::Send + core::marker::Sync>>> + core::marker::Send>>>>
FUNC m 49e0 51 0 core::ptr::drop_in_place::<core::option::Option<alloc::boxed::Box<dyn std::error::Error + core::marker::Send + core::marker::Sync>>>
FUNC m 4a40 a1 0 core::ptr::drop_in_place::<core::option::Option<clap::error::Message>>
FUNC m 4af0 85 0 core::ptr::drop_in_place::<alloc::vec::Vec<alloc::string::String>>
FUNC m 4b80 8d 0 core::ptr::drop_in_place::<alloc::vec::Vec<clap::mkeymap::Key>>
FUNC m 4c10 28 0 core::ptr::drop_in_place::<alloc::vec::Vec<clap::util::id::Id>>
FUNC m 4c40 98 0 core::ptr::drop_in_place::<alloc::vec::Vec<clap::builder::possible_value::PossibleValue>>
FUNC m 4ce0 b6 0 core::ptr::drop_in_place::<alloc::vec::Vec<clap::builder::command::App>>
FUNC m 4da0 d6 0 core::ptr::drop_in_place::<alloc::vec::Vec<clap::builder::arg_group::ArgGroup>>
FUNC m 4e80 28 0 core::ptr::drop_in_place::<alloc::vec::Vec<&std::ffi::os_str::OsStr>>
FUNC m 4eb0 28 0 core::ptr::drop_in_place::<alloc::vec::Vec<(clap::util::id::Id, clap::builder::arg_predicate::ArgPredicate, core::option::Option<&std::ffi::os_str::OsStr>)>>
FUNC m 4ee0 28 0 core::ptr::drop_in_place::<alloc::vec::Vec<(clap::util::id::Id, &str)>>
FUNC m 4f10 28 0 core::ptr::drop_in_place::<alloc::vec::Vec<(char, bool)>>
FUNC m 4f40 28 0 core::ptr::drop_in_place::<alloc::raw_vec::RawVec<clap::builder::arg::Arg>>
FUNC m 4f70 28 0 core::ptr::drop_in_place::<alloc::raw_vec::RawVec<clap::builder::command::App>>
FUNC m 4fa0 28 0 core::ptr::drop_in_place::<alloc::raw_vec::RawVec<(clap::error::context::ContextKind, clap::error::context::ContextValue)>>
FUNC m 4fd0 36 0 core::ptr::drop_in_place::<std::collections::hash::map::HashMap<&str, &[&str]>>
FUNC m 5010 85 0 core::ptr::drop_in_place::<clap_lex::RawArgs>
FUNC m 50a0 1d 0 core::ptr::drop_in_place::<alloc::string::String>
FUNC m 50c0 1ed 0 core::ptr::drop_in_place::<clap::error::Error>
FUNC m 52b0 137 0 core::ptr::drop_in_place::<clap::mkeymap::MKeyMap>
FUNC m 53f0 42b 0 core::ptr::drop_in_place::<clap::builder::arg::Arg>
FUNC m 5820 2f7 0 core::ptr::drop_in_place::<clap::builder::command::App>
FUNC m 5b20 1c 0 alloc::alloc::box_free::<dyn std::error::Error + core::marker::Send + core::marker::Sync, alloc::alloc::Global>
FUNC m 5b40 14 0 alloc::alloc::box_free::<std::io::error::Custom, alloc::alloc::Global>
FUNC m 5b60 6 0 core::ptr::drop_in_place::<std::rt::lang_start<()>::{closure#0}>
FUNC m 5b70 90 0 core::ptr::drop_in_place::<std::io::error::Error>
FUNC m 5c00 10 0 std::rt::lang_start::<()>::{closure#0}
FUNC m 5c10 10 0 <std::rt::lang_start<()>::{closure#0} as core::ops::function::FnOnce<()>>::call_once::{shim:vtable#0}
FUNC m 5c20 156 0 <crash_handler::make_crash_event::Wrapper<crash_client::real_main::{closure#0}> as crash_handler::CrashEvent>::on_crash
FUNC m 5d80 17 0 <&str as core::fmt::Display>::fmt
FUNC m 5da0 74 0 <clap::parser::matches::arg_matches::ArgMatches>::is_present::<&str>
FUNC m 5e20 1f1 0 <clap::parser::matches::arg_matches::ArgMatches>::get_one::<alloc::string::String>
FUNC m 6020 1c 0 alloc::alloc::box_free::<dyn core::any::Any + core::marker::Send, alloc::alloc::Global>
FUNC m 6040 8 0 std::sys_common::backtrace::__rust_begin_short_backtrace::<fn(), ()>
FUNC m 6050 17 0 std::sys_common::backtrace::__rust_begin_short_backtrace::<crash_client::real_main::{closure#2}, ()>
FUNC m 6070 45 0 std::sys_common::backtrace::__rust_begin_short_backtrace::<crash_client::real_main::{closure#1}, ()>
FUNC m 60e0 b 0 sadness_generator::raise_stack_overflow_in_non_rust_thread_normal
FUNC m 60f0 f6 0 <alloc::ffi::c_str::CString>::new::<alloc::string::String>
FUNC m 61f0 1d 0 core::ptr::drop_in_place::<alloc::vec::Vec<u8>>
FUNC m 6210 29 0 core::ptr::drop_in_place::<clap::builder::possible_value::PossibleValue>
FUNC m 6240 1f3 0 <clap::util::id::Id as core::hash::Hash>::hash::<std::collections::hash::map::DefaultHasher>
FUNC m 6440 17 0 <anyhow::wrapper::MessageError<alloc::string::String> as core::fmt::Debug>::fmt
FUNC m 6460 17 0 <anyhow::wrapper::MessageError<&str> as core::fmt::Debug>::fmt
FUNC m 6480 d 0 <&clap::util::id::Id as core::fmt::Debug>::fmt
FUNC m 6490 17 0 <anyhow::wrapper::MessageError<alloc::string::String> as core::fmt::Display>::fmt
FUNC m 64b0 17 0 <anyhow::wrapper::MessageError<&str> as core::fmt::Display>::fmt
FUNC m 64d0 12 0 <anyhow::wrapper::MessageError<alloc::string::String> as std::error::Error>::description
FUNC m 64f0 8 0 <anyhow::wrapper::MessageError<alloc::string::String> as std::error::Error>::cause
FUNC m 6500 8 0 <anyhow::wrapper::MessageError<&str> as std::error::Error>::source
FUNC m 6510 10 0 <anyhow::wrapper::MessageError<alloc::string::String> as std::error::Error>::type_id
FUNC m 6520 8 0 <anyhow::wrapper::MessageError<alloc::string::String> as std::error::Error>::backtrace
FUNC m 6530 12 0 <anyhow::wrapper::MessageError<&str> as std::error::Error>::description
FUNC m 6550 8 0 <anyhow::wrapper::MessageError<&str> as std::error::Error>::cause
FUNC m 6560 10 0 <anyhow::wrapper::MessageError<&str> as std::error::Error>::type_id
FUNC m 6570 8 0 <anyhow::wrapper::MessageError<&str> as std::error::Error>::backtrace
FUNC m 6580 1f6 0 <minidumper_test::Signal as clap::derive::ValueEnum>::from_str
FUNC m 6780 28 0 core::ptr::drop_in_place::<alloc::raw_vec::RawVec<std::backtrace::BacktraceFrame>>
FUNC m 67b0 fc 0 core::ptr::drop_in_place::<anyhow::error::ErrorImpl<anyhow::wrapper::MessageError<alloc::string::String>>>
FUNC m 68b0 c0 0 core::ptr::drop_in_place::<anyhow::error::ErrorImpl<anyhow::wrapper::MessageError<&str>>>
FUNC m 6970 1d 0 core::ptr::drop_in_place::<anyhow::wrapper::MessageError<alloc::string::String>>
FUNC m 6990 1d 0 core::ptr::drop_in_place::<alloc::string::String>
FUNC m 69b0 20a 0 <clap::error::Error>::raw::<alloc::string::String>
FUNC m 6bc0 1c 0 alloc::alloc::box_free::<dyn std::error::Error + core::marker::Send + core::marker::Sync, alloc::alloc::Global>
FUNC m 6be0 14 0 alloc::alloc::box_free::<clap::error::ErrorInner, alloc::alloc::Global>
FUNC m 6c00 51 0 core::ptr::drop_in_place::<core::option::Option<alloc::boxed::Box<dyn std::error::Error + core::marker::Send + core::marker::Sync>>>
FUNC m 6c60 a1 0 core::ptr::drop_in_place::<core::option::Option<clap::error::Message>>
FUNC m 6d10 85 0 core::ptr::drop_in_place::<alloc::vec::Vec<alloc::string::String>>
FUNC m 6da0 8d 0 core::ptr::drop_in_place::<alloc::vec::Vec<clap::mkeymap::Key>>
FUNC m 6e30 b6 0 core::ptr::drop_in_place::<alloc::vec::Vec<clap::builder::command::App>>
FUNC m 6ef0 d6 0 core::ptr::drop_in_place::<alloc::vec::Vec<clap::builder::arg_group::ArgGroup>>
FUNC m 6fd0 28 0 core::ptr::drop_in_place::<alloc::raw_vec::RawVec<clap::builder::arg::Arg>>
FUNC m 7000 28 0 core::ptr::drop_in_place::<alloc::raw_vec::RawVec<clap::builder::command::App>>
FUNC m 7030 28 0 core::ptr::drop_in_place::<alloc::raw_vec::RawVec<(clap::error::context::ContextKind, clap::error::context::ContextValue)>>
FUNC m 7060 36 0 core::ptr::drop_in_place::<std::collections::hash::map::HashMap<&str, &[&str]>>
FUNC m 70a0 1d 0 core::ptr::drop_in_place::<alloc::string::String>
FUNC m 70c0 1ed 0 core::ptr::drop_in_place::<clap::error::Error>
FUNC m 72b0 137 0 core::ptr::drop_in_place::<clap::mkeymap::MKeyMap>
FUNC m 73f0 2f7 0 core::ptr::drop_in_place::<clap::builder::command::App>
FUNC m 76f0 1c 0 alloc::alloc::box_free::<dyn clap::builder::value_parser::AnyValueParser, alloc::alloc::Global>
FUNC m 7710 1d1 0 core::ptr::drop_in_place::<indexmap::Bucket<clap::util::id::Id, clap::parser::matches::matched_arg::MatchedArg>>
FUNC m 78f0 1a 0 core::ptr::drop_in_place::<core::option::Option<alloc::sync::Arc<std::sync::mutex::Mutex<dyn for<'a> core::ops::function::FnMut<(&'a std::ffi::os_str::OsStr,), Output = core::result::Result<(), alloc::boxed::Box<dyn std::error::Error + core::marker::Send + core::marker::Sync>>> + core::marker::Send>>>>
FUNC m 7910 1a 0 core::ptr::drop_in_place::<core::option::Option<alloc::sync::Arc<std::sync::mutex::Mutex<dyn for<'a> core::ops::function::FnMut<(&'a str,), Output = core::result::Result<(), alloc::boxed::Box<dyn std::error::Error + core::marker::Send + core::marker::Sync>>> + core::marker::Send>>>>
FUNC m 7930 10d 0 core::ptr::drop_in_place::<alloc::vec::Vec<alloc::vec::Vec<std::ffi::os_str::OsString>>>
FUNC m 7a40 8d 0 core::ptr::drop_in_place::<alloc::vec::Vec<clap::mkeymap::Key>>
FUNC m 7ad0 85 0 core::ptr::drop_in_place::<alloc::vec::Vec<std::ffi::os_str::OsString>>
FUNC m 7b60 28 0 core::ptr::drop_in_place::<alloc::vec::Vec<clap::util::id::Id>>
FUNC m 7b90 98 0 core::ptr::drop_in_place::<alloc::vec::Vec<clap::builder::possible_value::PossibleValue>>
FUNC m 7c30 b6 0 core::ptr::drop_in_place::<alloc::vec::Vec<clap::builder::command::App>>
FUNC m 7cf0 d6 0 core::ptr::drop_in_place::<alloc::vec::Vec<clap::builder::arg_group::ArgGroup>>
FUNC m 7dd0 cf 0 core::ptr::drop_in_place::<alloc::vec::Vec<clap::parser::matches::any_value::AnyValue>>
FUNC m 7ea0 28 0 core::ptr::drop_in_place::<alloc::vec::Vec<&std::ffi::os_str::OsStr>>
FUNC m 7ed0 28 0 core::ptr::drop_in_place::<alloc::vec::Vec<(clap::util::id::Id, clap::builder::arg_predicate::ArgPredicate, core::option::Option<&std::ffi::os_str::OsStr>)>>
FUNC m 7f00 28 0 core::ptr::drop_in_place::<alloc::vec::Vec<(clap::util::id::Id, &str)>>
FUNC m 7f30 28 0 core::ptr::drop_in_place::<alloc::vec::Vec<(char, bool)>>
FUNC m 7f60 15 0 core::ptr::drop_in_place::<alloc::sync::Arc<std::thread::Packet<()>>>
FUNC m 7f80 28 0 core::ptr::drop_in_place::<alloc::raw_vec::RawVec<alloc::vec::Vec<clap::parser::matches::any_value::AnyValue>>>
FUNC m 7fb0 28 0 core::ptr::drop_in_place::<alloc::raw_vec::RawVec<clap::builder::arg::Arg>>
FUNC m 7fe0 28 0 core::ptr::drop_in_place::<alloc::raw_vec::RawVec<clap::builder::command::App>>
FUNC m 8010 6b 0 core::ptr::drop_in_place::<std::thread::JoinHandle<()>>
FUNC m 8080 36 0 core::ptr::drop_in_place::<std::collections::hash::map::HashMap<&str, &[&str]>>
FUNC m 80c0 15 0 core::ptr::drop_in_place::<std::thread::Thread>
FUNC m 80e0 ce 0 core::ptr::drop_in_place::<std::backtrace::BacktraceFrame>
FUNC m 81b0 1d 0 core::ptr::drop_in_place::<std::ffi::os_str::OsString>
FUNC m 81d0 29 0 core::ptr::drop_in_place::<clap::builder::possible_value::PossibleValue>
FUNC m 8200 42b 0 core::ptr::drop_in_place::<clap::builder::arg::Arg>
FUNC m 8630 436 0 core::ptr::drop_in_place::<clap::builder::command::App>
FUNC m 8a70 15 0 core::ptr::drop_in_place::<clap::parser::matches::any_value::AnyValue>
FUNC m 8a90 19b 0 <alloc::vec::Vec<clap::builder::possible_value::PossibleValue> as alloc::vec::spec_extend::SpecExtend<clap::builder::possible_value::PossibleValue, core::iter::adapters::map::Map<core::iter::adapters::filter_map::FilterMap<core::slice::iter::Iter<minidumper_test::Signal>, <minidumper_test::Signal as clap::derive::ValueEnum>::to_possible_value>, <clap::builder::arg::Arg>::possible_values<core::iter::adapters::filter_map::FilterMap<core::slice::iter::Iter<minidumper_test::Signal>, <minidumper_test::Signal as clap::derive::ValueEnum>::to_possible_value>, clap::builder::possible_value::PossibleValue>::{closure#0}>>>::spec_extend
FUNC m 8c30 217 0 <alloc::vec::Vec<std::ffi::os_str::OsString> as alloc::vec::spec_from_iter::SpecFromIter<std::ffi::os_str::OsString, core::iter::adapters::map::Map<&mut std::env::ArgsOs, <clap_lex::RawArgs as core::convert::From<&mut std::env::ArgsOs>>::from::{closure#0}>>>::from_iter
FUNC m 8e50 cc 0 <alloc::vec::Vec<std::thread::JoinHandle<()>> as core::ops::drop::Drop>::drop
FUNC m 8f20 f9 0 <alloc::vec::Vec<(clap::error::context::ContextKind, clap::error::context::ContextValue)> as core::ops::drop::Drop>::drop
FUNC m 9020 1c 0 alloc::alloc::box_free::<dyn std::error::Error + core::marker::Send + core::marker::Sync, alloc::alloc::Global>
FUNC m 9040 14 0 alloc::alloc::box_free::<std::io::error::Custom, alloc::alloc::Global>
FUNC m 9060 391 0 std::thread::spawn::<crash_client::real_main::{closure#2}, ()>
FUNC m 9400 3b0 0 std::thread::spawn::<crash_client::real_main::{closure#1}, ()>
FUNC m 97b0 5a 0 core::ptr::drop_in_place::<core::cell::UnsafeCell<core::option::Option<core::result::Result<(), alloc::boxed::Box<dyn core::any::Any + core::marker::Send>>>>>
FUNC m 9810 1a 0 core::ptr::drop_in_place::<core::option::Option<alloc::sync::Arc<std::sync::mutex::Mutex<alloc::vec::Vec<u8>>>>>
FUNC m 9830 25 0 core::ptr::drop_in_place::<core::option::Option<alloc::string::String>>
FUNC m 9860 51 0 core::ptr::drop_in_place::<core::result::Result<(), alloc::boxed::Box<dyn core::any::Any + core::marker::Send>>>
FUNC m 98c0 15 0 core::ptr::drop_in_place::<alloc::sync::Arc<std::thread::Packet<()>>>
FUNC m 98e0 80 0 core::ptr::drop_in_place::<alloc::sync::ArcInner<std::thread::Packet<()>>>
FUNC m 9960 7c 0 core::ptr::drop_in_place::<<std::thread::Builder>::spawn_unchecked_<crash_client::real_main::{closure#2}, ()>::{closure#1}>
FUNC m 99e0 7c 0 core::ptr::drop_in_place::<<std::thread::Builder>::spawn_unchecked_<crash_client::real_main::{closure#1}, ()>::{closure#1}>
FUNC m 9a60 15 0 core::ptr::drop_in_place::<std::thread::Thread>
FUNC m 9a80 1e 0 core::ptr::drop_in_place::<alloc::ffi::c_str::NulError>
FUNC m 9aa0 90 0 core::ptr::drop_in_place::<std::io::error::Error>
FUNC m 9b30 155 0 <<std::thread::Builder>::spawn_unchecked_<crash_client::real_main::{closure#2}, ()>::{closure#1} as core::ops::function::FnOnce<()>>::call_once::{shim:vtable#0}
FUNC m 9c90 144 0 <<std::thread::Builder>::spawn_unchecked_<crash_client::real_main::{closure#1}, ()>::{closure#1} as core::ops::function::FnOnce<()>>::call_once::{shim:vtable#0}
FUNC m 9de0 115 0 <std::thread::JoinHandle<()>>::join
FUNC m 9f00 196 0 <std::thread::Packet<()> as core::ops::drop::Drop>::drop
FUNC m a0a0 1c 0 alloc::alloc::box_free::<dyn core::any::Any + core::marker::Send, alloc::alloc::Global>
FUNC m a0c0 7 0 core::ptr::drop_in_place::<core::cell::UnsafeCell<dyn for<'a> core::ops::function::FnMut<(&'a std::ffi::os_str::OsStr,), Output = core::result::Result<(), alloc::boxed::Box<dyn std::error::Error + core::marker::Send + core::marker::Sync>>> + core::marker::Send>>
FUNC m a0d0 5a 0 core::ptr::drop_in_place::<core::cell::UnsafeCell<core::option::Option<core::result::Result<(), alloc::boxed::Box<dyn core::any::Any + core::marker::Send>>>>>
FUNC m a130 1d 0 core::ptr::drop_in_place::<core::cell::UnsafeCell<alloc::vec::Vec<u8>>>
FUNC m a150 62 0 <alloc::sync::Arc<dyn core::any::Any + core::marker::Send + core::marker::Sync>>::drop_slow
FUNC m a1c0 9f 0 <alloc::sync::Arc<std::thread::Packet<()>>>::drop_slow
FUNC m a260 fd 0 <alloc::sync::Arc<std::sync::mutex::Mutex<dyn for<'a> core::ops::function::FnMut<(&'a std::ffi::os_str::OsStr,), Output = core::result::Result<(), alloc::boxed::Box<dyn std::error::Error + core::marker::Send + core::marker::Sync>>> + core::marker::Send>>>::drop_slow
FUNC m a360 fd 0 <alloc::sync::Arc<std::sync::mutex::Mutex<dyn for<'a> core::ops::function::FnMut<(&'a str,), Output = core::result::Result<(), alloc::boxed::Box<dyn std::error::Error + core::marker::Send + core::marker::Sync>>> + core::marker::Send>>>::drop_slow
FUNC m a460 9a 0 <alloc::sync::Arc<std::sync::mutex::Mutex<alloc::vec::Vec<u8>>>>::drop_slow
FUNC m a500 61 0 <alloc::sync::Arc<std::thread::Inner>>::drop_slow
FUNC m a570 359 0 <minidumper::ipc::client::Client>::with_name::<&alloc::string::String>
FUNC m a8d0 23 0 core::ptr::drop_in_place::<alloc::ffi::c_str::CString>
FUNC m a900 a 0 core::ptr::drop_in_place::<minidumper::ipc::mac::UnixStream>
FUNC m a910 a 0 core::ptr::drop_in_place::<minidumper::ipc::client::Client>
FUNC m a920 28d 0 <indexmap::map::IndexMap<clap::util::id::Id, clap::parser::matches::matched_arg::MatchedArg>>::get_index_of::<clap::util::id::Id>
FUNC m abb0 1c 0 alloc::alloc::box_free::<dyn std::error::Error + core::marker::Send + core::marker::Sync, alloc::alloc::Global>
FUNC m abd0 14 0 alloc::alloc::box_free::<std::io::error::Custom, alloc::alloc::Global>
FUNC m abf0 6 0 core::ptr::drop_in_place::<&mut std::io::Write::write_fmt::Adapter<std::sys::unix::stdio::Stderr>>
FUNC m ac00 bc 0 <&mut std::io::Write::write_fmt::Adapter<std::sys::unix::stdio::Stderr> as core::fmt::Write>::write_char
FUNC m acc0 58 0 <&mut std::io::Write::write_fmt::Adapter<std::sys::unix::stdio::Stderr> as core::fmt::Write>::write_fmt
FUNC m ad20 d 0 <&mut std::io::Write::write_fmt::Adapter<std::sys::unix::stdio::Stderr> as core::fmt::Write>::write_str
FUNC m ad30 b6 0 <std::io::Write::write_fmt::Adapter<std::sys::unix::stdio::Stderr> as core::fmt::Write>::write_str
FUNC m adf0 b9 0 <std::io::Write::write_fmt::Adapter<std::sys::unix::stdio::Stderr> as core::fmt::Write>::write_char
FUNC m aeb0 55 0 <std::io::Write::write_fmt::Adapter<std::sys::unix::stdio::Stderr> as core::fmt::Write>::write_fmt
FUNC m af10 79b 0 <clap::builder::arg::Arg>::new::<&str>
FUNC m b6b0 133 0 <minidumper::ipc::mac::UnixStream>::connect::<&std::path::Path>
FUNC m b7f0 1c 0 alloc::alloc::box_free::<dyn clap::builder::value_parser::AnyValueParser, alloc::alloc::Global>
FUNC m b810 14 0 alloc::alloc::box_free::<std::sys::unix::locks::pthread_mutex::Mutex, alloc::alloc::Global>
FUNC m b830 1a 0 core::ptr::drop_in_place::<core::option::Option<alloc::sync::Arc<std::sync::mutex::Mutex<dyn for<'a> core::ops::function::FnMut<(&'a std::ffi::os_str::OsStr,), Output = core::result::Result<(), alloc::boxed::Box<dyn std::error::Error + core::marker::Send + core::marker::Sync>>> + core::marker::Send>>>>
FUNC m b850 1a 0 core::ptr::drop_in_place::<core::option::Option<alloc::sync::Arc<std::sync::mutex::Mutex<dyn for<'a> core::ops::function::FnMut<(&'a str,), Output = core::result::Result<(), alloc::boxed::Box<dyn std::error::Error + core::marker::Send + core::marker::Sync>>> + core::marker::Send>>>>
FUNC m b870 5d 0 core::ptr::drop_in_place::<core::option::Option<clap::builder::value_parser::ValueParser>>
FUNC m b8d0 28 0 core::ptr::drop_in_place::<alloc::vec::Vec<clap::util::id::Id>>
FUNC m b900 98 0 core::ptr::drop_in_place::<alloc::vec::Vec<clap::builder::possible_value::PossibleValue>>
FUNC m b9a0 28 0 core::ptr::drop_in_place::<alloc::vec::Vec<&std::ffi::os_str::OsStr>>
FUNC m b9d0 28 0 core::ptr::drop_in_place::<alloc::vec::Vec<(clap::util::id::Id, clap::builder::arg_predicate::ArgPredicate, core::option::Option<&std::ffi::os_str::OsStr>)>>
FUNC m ba00 28 0 core::ptr::drop_in_place::<alloc::vec::Vec<(clap::util::id::Id, &str)>>
FUNC m ba30 28 0 core::ptr::drop_in_place::<alloc::vec::Vec<(char, bool)>>
FUNC m ba60 42b 0 core::ptr::drop_in_place::<clap::builder::arg::Arg>
FUNC m be90 a 0 core::ptr::drop_in_place::<minidumper::ipc::mac::Uds>
FUNC m bea0 17 0 <alloc::boxed::Box<dyn core::any::Any + core::marker::Send> as core::fmt::Debug>::fmt
FUNC m bec0 14 0 alloc::alloc::box_free::<anyhow::error::ErrorImpl<anyhow::wrapper::MessageError<alloc::string::String>>, alloc::alloc::Global>
FUNC m bee0 14 0 alloc::alloc::box_free::<anyhow::error::ErrorImpl<anyhow::wrapper::MessageError<&str>>, alloc::alloc::Global>
FUNC m bf00 28 0 core::ptr::drop_in_place::<alloc::raw_vec::RawVec<std::backtrace::BacktraceFrame>>
FUNC m bf30 fc 0 core::ptr::drop_in_place::<anyhow::error::ErrorImpl<anyhow::wrapper::MessageError<alloc::string::String>>>
FUNC m c030 c0 0 core::ptr::drop_in_place::<anyhow::error::ErrorImpl<anyhow::wrapper::MessageError<&str>>>
FUNC m c0f0 1d 0 core::ptr::drop_in_place::<anyhow::wrapper::MessageError<alloc::string::String>>
FUNC m c110 6 0 core::ptr::drop_in_place::<anyhow::wrapper::MessageError<&str>>
FUNC m c120 11 0 anyhow::error::object_ref::<anyhow::wrapper::MessageError<alloc::string::String>>
FUNC m c140 11 0 anyhow::error::object_ref::<anyhow::wrapper::MessageError<&str>>
FUNC m c160 38 0 anyhow::error::object_drop::<anyhow::wrapper::MessageError<alloc::string::String>>
FUNC m c1a0 d8 0 anyhow::error::object_drop::<anyhow::wrapper::MessageError<&str>>
FUNC m c280 10 0 anyhow::error::object_boxed::<anyhow::wrapper::MessageError<alloc::string::String>>
FUNC m c290 10 0 anyhow::error::object_boxed::<anyhow::wrapper::MessageError<&str>>
FUNC m c2a0 1d 0 anyhow::error::object_downcast::<alloc::string::String>
FUNC m c2c0 1d 0 anyhow::error::object_downcast::<&str>
FUNC m c2e0 d8 0 anyhow::error::object_drop_front::<alloc::string::String>
FUNC m c3c0 d8 0 anyhow::error::object_drop_front::<&str>
FUNC m c4a0 10 0 <anyhow::error::ErrorImpl<anyhow::wrapper::MessageError<alloc::string::String>> as std::error::Error>::source
FUNC m c4b0 a 0 <anyhow::error::ErrorImpl<anyhow::wrapper::MessageError<alloc::string::String>> as std::error::Error>::backtrace
FUNC m c4c0 10 0 <anyhow::error::ErrorImpl<anyhow::wrapper::MessageError<&str>> as std::error::Error>::source
FUNC m c4d0 a 0 <anyhow::error::ErrorImpl<anyhow::wrapper::MessageError<&str>> as std::error::Error>::backtrace
FUNC m c4e0 a 0 <anyhow::error::ErrorImpl<anyhow::wrapper::MessageError<alloc::string::String>> as core::fmt::Debug>::fmt
FUNC m c4f0 a 0 <anyhow::error::ErrorImpl<anyhow::wrapper::MessageError<&str>> as core::fmt::Debug>::fmt
FUNC m c500 20 0 <anyhow::error::ErrorImpl<anyhow::wrapper::MessageError<alloc::string::String>> as core::fmt::Display>::fmt
FUNC m c520 20 0 <anyhow::error::ErrorImpl<anyhow::wrapper::MessageError<&str>> as core::fmt::Display>::fmt
FUNC m c540 12 0 <anyhow::error::ErrorImpl<anyhow::wrapper::MessageError<alloc::string::String>> as std::error::Error>::description
FUNC m c560 10 0 <anyhow::error::ErrorImpl<anyhow::wrapper::MessageError<alloc::string::String>> as std::error::Error>::cause
FUNC m c570 10 0 <anyhow::error::ErrorImpl<anyhow::wrapper::MessageError<alloc::string::String>> as std::error::Error>::type_id
FUNC m c580 12 0 <anyhow::error::ErrorImpl<anyhow::wrapper::MessageError<&str>> as std::error::Error>::description
FUNC m c5a0 10 0 <anyhow::error::ErrorImpl<anyhow::wrapper::MessageError<&str>> as std::error::Error>::cause
FUNC m c5b0 10 0 <anyhow::error::ErrorImpl<anyhow::wrapper::MessageError<&str>> as std::error::Error>::type_id
FUNC m c5c0 1c 0 alloc::alloc::box_free::<dyn std::error::Error + core::marker::Send + core::marker::Sync, alloc::alloc::Global>
FUNC m c5e0 14 0 alloc::alloc::box_free::<std::io::error::Custom, alloc::alloc::Global>
FUNC m c600 15 0 core::ptr::drop_in_place::<std::io::Write::write_fmt::Adapter<std::sys::unix::stdio::Stderr>>
FUNC m c620 90 0 core::ptr::drop_in_place::<std::io::error::Error>
FUNC m c6b0 207 0 <std::sys::unix::stdio::Stderr as std::io::Write>::write_all
FUNC m c970 9d 0 <std::sys::unix::stdio::Stderr as std::io::Write>::write_fmt
PUBLIC ca10 0 __rust_alloc
PUBLIC ca20 0 __rust_dealloc
PUBLIC ca30 0 __rust_realloc
PUBLIC ca40 0 __rust_alloc_error_handler
FUNC m ca50 1c 0 alloc::alloc::box_free::<dyn crash_handler::CrashEvent, alloc::alloc::Global>
FUNC m ca70 1b 0 core::ptr::drop_in_place::<lock_api::mutex::MutexGuard<parking_lot::raw_mutex::RawMutex, core::option::Option<bool>>>
FUNC m ca90 25 0 core::ptr::drop_in_place::<lock_api::rwlock::RwLockReadGuard<parking_lot::raw_rwlock::RawRwLock, core::option::Option<crash_handler::mac::state::HandlerInner>>>
FUNC m cac0 1f 0 core::ptr::drop_in_place::<lock_api::rwlock::RwLockWriteGuard<parking_lot::raw_rwlock::RawRwLock, core::option::Option<crash_handler::mac::state::HandlerInner>>>
FUNC m cae0 15 0 core::ptr::drop_in_place::<alloc::sync::Arc<std::thread::Packet<()>>>
FUNC m cb00 15 0 core::ptr::drop_in_place::<alloc::sync::Arc<(lock_api::mutex::Mutex<parking_lot::raw_mutex::RawMutex, core::option::Option<bool>>, parking_lot::condvar::Condvar)>>
FUNC m cb20 4c 0 core::ptr::drop_in_place::<alloc::boxed::Box<dyn crash_handler::CrashEvent>>
FUNC m cb70 6b 0 core::ptr::drop_in_place::<std::thread::JoinHandle<()>>
FUNC m cbe0 15 0 core::ptr::drop_in_place::<std::thread::Thread>
FUNC m cc00 f7 0 core::ptr::drop_in_place::<crash_handler::mac::state::HandlerInner>
FUNC m cd00 1d 0 core::ptr::drop_in_place::<crash_handler::mac::state::AllocatedPort>
FUNC m cd20 79 0 core::ptr::drop_in_place::<crash_handler::mac::state::ScopedSuspend>
FUNC m cda0 13a 0 <crash_handler::mac::state::HandlerInner>::send_message
FUNC m cee0 e9f 0 crash_handler::mac::state::attach
FUNC m dd80 407 0 crash_handler::mac::state::detach
FUNC m e190 160 0 crash_handler::mac::state::simulate_exception
FUNC m e2f0 8a5 0 crash_handler::mac::state::exception_handler
FUNC m ebb0 1c 0 alloc::alloc::box_free::<dyn core::any::Any + core::marker::Send, alloc::alloc::Global>
FUNC m ebd0 5a 0 core::ptr::drop_in_place::<core::cell::UnsafeCell<core::option::Option<core::result::Result<(), alloc::boxed::Box<dyn core::any::Any + core::marker::Send>>>>>
FUNC m ec30 1d 0 core::ptr::drop_in_place::<core::cell::UnsafeCell<alloc::vec::Vec<u8>>>
FUNC m ec50 9f 0 <alloc::sync::Arc<std::thread::Packet<()>>>::drop_slow
FUNC m ecf0 9a 0 <alloc::sync::Arc<std::sync::mutex::Mutex<alloc::vec::Vec<u8>>>>::drop_slow
FUNC m ed90 61 0 <alloc::sync::Arc<std::thread::Inner>>::drop_slow
FUNC m ee00 26 0 <alloc::sync::Arc<(lock_api::mutex::Mutex<parking_lot::raw_mutex::RawMutex, core::option::Option<bool>>, parking_lot::condvar::Condvar)>>::drop_slow
FUNC m ee30 b 0 <crash_handler::mac::CrashHandler>::attach
FUNC m ee40 c 0 <crash_handler::mac::CrashHandler as core::ops::drop::Drop>::drop
FUNC m ee50 1d 0 core::ptr::drop_in_place::<alloc::vec::Vec<u8>>
FUNC m ee70 f6 0 <alloc::string::String as <alloc::ffi::c_str::CString>::new::SpecNewImpl>::spec_new_impl
FUNC m ef70 1c 0 alloc::alloc::box_free::<dyn core::any::Any + core::marker::Send, alloc::alloc::Global>
FUNC m ef90 14 0 alloc::alloc::box_free::<std::sys::unix::locks::pthread_mutex::Mutex, alloc::alloc::Global>
FUNC m efb0 15 0 core::ptr::drop_in_place::<alloc::sync::Arc<(lock_api::mutex::Mutex<parking_lot::raw_mutex::RawMutex, core::option::Option<bool>>, parking_lot::condvar::Condvar)>>
FUNC m efd0 d1 0 std::sys_common::backtrace::__rust_begin_short_backtrace::<crash_handler::mac::state::attach::{closure#3}, ()>
FUNC m f0b0 4c 0 <&i32 as core::fmt::Debug>::fmt
FUNC m f100 6 0 core::ptr::drop_in_place::<&i32>
FUNC m f110 1c 0 alloc::alloc::box_free::<dyn std::error::Error + core::marker::Send + core::marker::Sync, alloc::alloc::Global>
FUNC m f130 14 0 alloc::alloc::box_free::<std::io::error::Custom, alloc::alloc::Global>
FUNC m f150 42f 0 std::thread::spawn::<crash_handler::mac::state::attach::{closure#3}, ()>
FUNC m f580 5a 0 core::ptr::drop_in_place::<core::cell::UnsafeCell<core::option::Option<core::result::Result<(), alloc::boxed::Box<dyn core::any::Any + core::marker::Send>>>>>
FUNC m f5e0 1a 0 core::ptr::drop_in_place::<core::option::Option<alloc::sync::Arc<std::sync::mutex::Mutex<alloc::vec::Vec<u8>>>>>
FUNC m f600 25 0 core::ptr::drop_in_place::<core::option::Option<alloc::string::String>>
FUNC m f630 51 0 core::ptr::drop_in_place::<core::result::Result<(), alloc::boxed::Box<dyn core::any::Any + core::marker::Send>>>
FUNC m f690 15 0 core::ptr::drop_in_place::<alloc::sync::Arc<std::thread::Packet<()>>>
FUNC m f6b0 80 0 core::ptr::drop_in_place::<alloc::sync::ArcInner<std::thread::Packet<()>>>
FUNC m f730 9d 0 core::ptr::drop_in_place::<<std::thread::Builder>::spawn_unchecked_<crash_handler::mac::state::attach::{closure#3}, ()>::{closure#1}>
FUNC m f7d0 15 0 core::ptr::drop_in_place::<crash_handler::mac::state::attach::{closure#3}>
FUNC m f7f0 15 0 core::ptr::drop_in_place::<std::thread::Thread>
FUNC m f810 1e 0 core::ptr::drop_in_place::<alloc::ffi::c_str::NulError>
FUNC m f830 90 0 core::ptr::drop_in_place::<std::io::error::Error>
FUNC m f8c0 16b 0 <<std::thread::Builder>::spawn_unchecked_<crash_handler::mac::state::attach::{closure#3}, ()>::{closure#1} as core::ops::function::FnOnce<()>>::call_once::{shim:vtable#0}
FUNC m fa30 115 0 <std::thread::JoinHandle<()>>::join
FUNC m fb50 196 0 <std::thread::Packet<()> as core::ops::drop::Drop>::drop
FUNC m fcf0 1c 0 alloc::alloc::box_free::<dyn std::error::Error + core::marker::Send + core::marker::Sync, alloc::alloc::Global>
FUNC m fd10 14 0 alloc::alloc::box_free::<std::io::error::Custom, alloc::alloc::Global>
FUNC m fd30 15 0 core::ptr::drop_in_place::<std::io::Write::write_fmt::Adapter<std::sys::unix::stdio::Stderr>>
FUNC m fd50 90 0 core::ptr::drop_in_place::<std::io::error::Error>
FUNC m fde0 207 0 <std::sys::unix::stdio::Stderr as std::io::Write>::write_all
FUNC m 100a0 9d 0 <std::sys::unix::stdio::Stderr as std::io::Write>::write_fmt
FUNC m 10140 5e 0 crash_handler::mac::signal::signal_handler
FUNC m 101a0 1c 0 alloc::alloc::box_free::<dyn std::error::Error + core::marker::Send + core::marker::Sync, alloc::alloc::Global>
FUNC m 101c0 14 0 alloc::alloc::box_free::<std::io::error::Custom, alloc::alloc::Global>
FUNC m 101e0 6 0 core::ptr::drop_in_place::<&mut std::io::Write::write_fmt::Adapter<std::sys::unix::stdio::Stderr>>
FUNC m 101f0 bc 0 <&mut std::io::Write::write_fmt::Adapter<std::sys::unix::stdio::Stderr> as core::fmt::Write>::write_char
FUNC m 102b0 58 0 <&mut std::io::Write::write_fmt::Adapter<std::sys::unix::stdio::Stderr> as core::fmt::Write>::write_fmt
FUNC m 10310 d 0 <&mut std::io::Write::write_fmt::Adapter<std::sys::unix::stdio::Stderr> as core::fmt::Write>::write_str
FUNC m 10320 b6 0 <std::io::Write::write_fmt::Adapter<std::sys::unix::stdio::Stderr> as core::fmt::Write>::write_str
FUNC m 103e0 b9 0 <std::io::Write::write_fmt::Adapter<std::sys::unix::stdio::Stderr> as core::fmt::Write>::write_char
FUNC m 104a0 55 0 <std::io::Write::write_fmt::Adapter<std::sys::unix::stdio::Stderr> as core::fmt::Write>::write_fmt
FUNC m 10500 6 0 core::ptr::drop_in_place::<smallvec::CollectionAllocErr>
FUNC m 10510 226 0 <smallvec::SmallVec<[(*const parking_lot_core::parking_lot::ThreadData, core::option::Option<parking_lot_core::thread_parker::imp::UnparkHandle>); 8]>>::try_reserve
FUNC m 10740 ac 0 core::ptr::drop_in_place::<smallvec::IntoIter<[(*const parking_lot_core::parking_lot::ThreadData, core::option::Option<parking_lot_core::thread_parker::imp::UnparkHandle>); 8]>>
FUNC m 107f0 29 0 core::ptr::drop_in_place::<smallvec::SmallVec<[(*const parking_lot_core::parking_lot::ThreadData, core::option::Option<parking_lot_core::thread_parker::imp::UnparkHandle>); 8]>>
FUNC m 10820 4a 0 core::ptr::drop_in_place::<core::option::Option<parking_lot_core::parking_lot::ThreadData>>
FUNC m 10870 20 0 core::ptr::drop_in_place::<parking_lot_core::thread_parker::imp::ThreadParker>
FUNC m 10890 11b 0 <parking_lot_core::thread_parker::imp::ThreadParker as parking_lot_core::thread_parker::ThreadParkerT>::park_until
FUNC m 109b0 ab0 0 <parking_lot::raw_rwlock::RawRwLock>::wait_for_readers
FUNC m 11460 6 0 core::ptr::drop_in_place::<std::panicking::begin_panic::PanicPayload<&str>>
FUNC m 11470 17 0 std::sys_common::backtrace::__rust_end_short_backtrace::<std::panicking::begin_panic<&str>::{closure#0}, !>
FUNC m 11490 2b 0 std::panicking::begin_panic::<&str>::{closure#0}
FUNC m 114c0 10 0 <&str as core::any::Any>::type_id
FUNC m 114d0 4a 0 core::ptr::drop_in_place::<core::option::Option<parking_lot_core::parking_lot::ThreadData>>
FUNC m 11520 20 0 core::ptr::drop_in_place::<parking_lot_core::thread_parker::imp::ThreadParker>
FUNC m 11540 1e9 0 parking_lot_core::parking_lot::lock_bucket_pair
FUNC m 11730 66b 0 <parking_lot::condvar::Condvar>::wait_until_internal
FUNC m 11da0 47 0 <std::thread::local::fast::Key<parking_lot_core::parking_lot::ThreadData>>::try_initialize::<parking_lot_core::parking_lot::with_thread_data::THREAD_DATA::__getit::{closure#0}>
FUNC m 11df0 20 0 core::ptr::drop_in_place::<parking_lot_core::thread_parker::imp::ThreadParker>
FUNC m 11e10 92 0 std::thread::local::fast::destroy_value::<parking_lot_core::parking_lot::ThreadData>
FUNC m 11eb0 4a 0 core::ptr::drop_in_place::<core::option::Option<parking_lot_core::parking_lot::ThreadData>>
FUNC m 11f00 20 0 core::ptr::drop_in_place::<parking_lot_core::thread_parker::imp::ThreadParker>
FUNC m 11f20 100 0 <std::thread::local::lazy::LazyKeyInner<parking_lot_core::parking_lot::ThreadData>>::initialize::<parking_lot_core::parking_lot::with_thread_data::THREAD_DATA::__getit::{closure#0}>
FUNC m 12020 20 0 core::ptr::drop_in_place::<parking_lot_core::thread_parker::imp::ThreadParker>
FUNC m 12040 6 0 core::ptr::drop_in_place::<&str>
FUNC m 12050 1b 0 <std::panicking::begin_panic::PanicPayload<&str> as core::panic::BoxMeUp>::get
FUNC m 12070 55 0 <std::panicking::begin_panic::PanicPayload<&str> as core::panic::BoxMeUp>::take_box
FUNC m 120d0 2d 0 core::ptr::drop_in_place::<core::option::Option<parking_lot_core::word_lock::ThreadData>>
FUNC m 12100 20b 0 <std::thread::local::fast::Key<parking_lot_core::word_lock::ThreadData>>::try_initialize::<parking_lot_core::word_lock::with_thread_data::THREAD_DATA::__getit::{closure#0}>
FUNC m 12310 73 0 std::thread::local::fast::destroy_value::<parking_lot_core::word_lock::ThreadData>
FUNC m 12390 8b 0 alloc::raw_vec::finish_grow::<alloc::alloc::Global>
FUNC m 12420 b2 0 <alloc::raw_vec::RawVec<parking_lot_core::parking_lot::Bucket>>::reserve_for_push
FUNC m 124e0 28 0 core::ptr::drop_in_place::<alloc::vec::Vec<parking_lot_core::parking_lot::Bucket>>
FUNC m 12510 3e 0 core::ptr::drop_in_place::<alloc::boxed::Box<parking_lot_core::parking_lot::HashTable>>
FUNC m 12550 21 0 core::ptr::drop_in_place::<parking_lot_core::parking_lot::HashTable>
FUNC m 12580 1f1 0 <parking_lot_core::parking_lot::HashTable>::new
FUNC m 12780 21 0 <parking_lot_core::parking_lot::FairTimeout>::gen_u32
FUNC m 127b0 34a 0 <parking_lot_core::parking_lot::ThreadData>::new
FUNC m 12b00 e 0 <parking_lot_core::parking_lot::ThreadData as core::ops::drop::Drop>::drop
FUNC m 12b10 28 0 core::ptr::drop_in_place::<alloc::vec::Vec<parking_lot_core::parking_lot::Bucket>>
FUNC m 12b40 8f 0 <alloc::vec::Vec<parking_lot_core::parking_lot::Bucket>>::into_boxed_slice
FUNC m 12bd0 6 0 core::ptr::drop_in_place::<anyhow::wrapper::MessageError<&str>>
FUNC m 12be0 2f 0 core::ptr::drop_in_place::<core::iter::adapters::skip::Skip<anyhow::Chain>>
FUNC m 12c10 1d 0 core::ptr::drop_in_place::<alloc::string::String>
FUNC m 12c30 10c 0 <alloc::string::String as core::fmt::Write>::write_char
FUNC m 12d40 5e 0 <alloc::string::String as core::fmt::Write>::write_str
FUNC m 12da0 40 0 alloc::string::String::truncate
FUNC m 12de0 17 0 <alloc::string::String as core::fmt::Display>::fmt
FUNC m 12e00 b 0 <anyhow::error::ErrorImpl>::error
FUNC m 12e10 44 0 <anyhow::error::ErrorImpl>::backtrace
FUNC m 12e60 29d 0 <anyhow::error::ErrorImpl>::display
FUNC m 13100 598 0 <anyhow::error::ErrorImpl>::debug
FUNC m 136a0 8b 0 alloc::raw_vec::finish_grow::<alloc::alloc::Global>
FUNC m 13730 93 0 <alloc::raw_vec::RawVec<u8>>::reserve_for_push
FUNC m 137d0 1d 0 core::ptr::drop_in_place::<alloc::vec::into_iter::IntoIter<u8>>
FUNC m 137f0 72b 0 <alloc::vec::splice::Splice<core::str::iter::Bytes> as core::ops::drop::Drop>::drop
FUNC m 13f20 8c 0 core::slice::index::range::<(core::ops::range::Bound<&usize>, core::ops::range::Bound<&usize>)>
FUNC m 13fb0 d 0 <anyhow::Error as core::fmt::Display>::fmt
FUNC m 13fc0 d 0 <anyhow::Error as core::ops::drop::Drop>::drop
FUNC m 13fd0 6 0 core::ptr::drop_in_place::<&mut anyhow::fmt::Indented<core::fmt::Formatter>>
FUNC m 13fe0 bc 0 <&mut anyhow::fmt::Indented<core::fmt::Formatter> as core::fmt::Write>::write_char
FUNC m 140a0 58 0 <&mut anyhow::fmt::Indented<core::fmt::Formatter> as core::fmt::Write>::write_fmt
FUNC m 14100 d 0 <&mut anyhow::fmt::Indented<core::fmt::Formatter> as core::fmt::Write>::write_str
FUNC m 14110 31f 0 <anyhow::fmt::Indented<core::fmt::Formatter> as core::fmt::Write>::write_str
FUNC m 14430 14a 0 <alloc::string::String>::replace_range::<core::ops::range::Range<usize>>
FUNC m 14580 60 0 core::ptr::drop_in_place::<alloc::vec::drain::Drain<u8>>
FUNC m 145e0 6 0 core::ptr::drop_in_place::<&mut alloc::string::String>
FUNC m 145f0 10c 0 <&mut alloc::string::String as core::fmt::Write>::write_char
FUNC m 14700 58 0 <&mut alloc::string::String as core::fmt::Write>::write_fmt
FUNC m 14760 60 0 <&mut alloc::string::String as core::fmt::Write>::write_str
FUNC m 147c0 55 0 <alloc::string::String as core::fmt::Write>::write_fmt
FUNC m 14820 c8 0 <str>::trim_end_matches::<<str>::trim_end::{closure#0}>
FUNC m 148f0 15 0 <&dyn std::error::Error + core::marker::Send + core::marker::Sync as core::fmt::Display>::fmt
FUNC m 14910 12 0 <minidumper_test::Signal as clap::derive::ValueEnum>::value_variants
FUNC m 14930 f2 0 <minidumper_test::Signal as clap::derive::ValueEnum>::to_possible_value
FUNC m 14a50 15 0 core::ptr::drop_in_place::<alloc::sync::Arc<(std::sync::mutex::Mutex<bool>, std::sync::condvar::Condvar)>>
FUNC m 14a70 9f 0 core::ptr::drop_in_place::<alloc::sync::ArcInner<(std::sync::mutex::Mutex<bool>, std::sync::condvar::Condvar)>>
FUNC m 14b10 45 0 core::ptr::drop_in_place::<std::sys_common::lazy_box::LazyBox<std::sys::unix::locks::pthread_condvar::Condvar>>
FUNC m 14b60 5a 0 core::ptr::drop_in_place::<std::sync::mutex::MutexGuard<bool>>
FUNC m 14bc0 45 0 core::ptr::drop_in_place::<std::sync::mutex::Mutex<bool>>
FUNC m 14c10 5a 0 core::ptr::drop_in_place::<std::sync::poison::PoisonError<std::sync::mutex::MutexGuard<bool>>>
FUNC m 14c70 45 0 core::ptr::drop_in_place::<std::sync::condvar::Condvar>
FUNC m 14cc0 9 0 sadness_generator::raise_abort
FUNC m 14cd0 11 0 sadness_generator::raise_segfault
FUNC m 14cf0 64 0 sadness_generator::raise_floating_point_exception
FUNC m 14d60 b 0 sadness_generator::raise_illegal_instruction
FUNC m 14d70 f7 0 sadness_generator::raise_bus
FUNC m 14e70 a 0 sadness_generator::raise_trap
FUNC m 14e80 13 0 sadness_generator::raise_stack_overflow
FUNC m 14ea0 ea 0 sadness_generator::raise_stack_overflow::recurse
FUNC m 14f90 476 0 sadness_generator::raise_stack_overflow_in_non_rust_thread
FUNC m 15410 e7 0 sadness_generator::raise_stack_overflow_in_non_rust_thread::thread_start
FUNC m 15500 7c 0 sadness_generator::raise_guard_exception
FUNC m 15580 6 0 core::ptr::drop_in_place::<&i32>
FUNC m 15590 45 0 core::ptr::drop_in_place::<std::sync::condvar::Condvar>
FUNC m 155e0 be 0 <alloc::sync::Arc<(std::sync::mutex::Mutex<bool>, std::sync::condvar::Condvar)>>::drop_slow
FUNC m 156a0 30 0 <std::sync::poison::PoisonError<std::sync::mutex::MutexGuard<bool>> as core::fmt::Debug>::fmt
FUNC m 156d0 5a 0 core::ptr::drop_in_place::<std::sync::mutex::MutexGuard<bool>>
FUNC m 15730 14 0 alloc::alloc::box_free::<std::sys::unix::locks::pthread_mutex::Mutex, alloc::alloc::Global>
FUNC m 15750 14 0 alloc::alloc::box_free::<std::sys::unix::locks::pthread_condvar::Condvar, alloc::alloc::Global>
FUNC m 15770 4c 0 <&i32 as core::fmt::Debug>::fmt
FUNC m 157c0 6 0 core::ptr::drop_in_place::<&core::alloc::layout::Layout>
FUNC m 157d0 80 0 <smallvec::CollectionAllocErr as core::fmt::Debug>::fmt
FUNC m 15850 d 0 <&core::alloc::layout::Layout as core::fmt::Debug>::fmt
FUNC m 15860 d 0 <minidumper::ipc::SocketName as core::convert::From<&alloc::string::String>>::from
FUNC m 15870 17 0 <&&str as core::fmt::Display>::fmt
FUNC m 15890 6f 0 <minidumper::ipc::client::Client>::request_dump
FUNC m 15900 6a 0 <minidumper::ipc::client::Client>::send_message_impl
FUNC m 15970 a 0 core::ptr::drop_in_place::<minidumper::ipc::mac::Uds>
FUNC m 15980 115 0 <minidumper::ipc::mac::UnixSocketAddr>::new
FUNC m 15aa0 c2 0 <minidumper::ipc::mac::Uds>::new
FUNC m 15b70 55 0 <minidumper::ipc::mac::Uds>::recv_vectored
FUNC m 15bd0 c 0 <minidumper::ipc::mac::Uds as core::ops::drop::Drop>::drop
FUNC m 15be0 e1 0 <minidumper::errors::Error as core::fmt::Display>::fmt
FUNC m 15cf0 15 0 <minidumper::errors::Error as core::convert::From<crash_context::mac::ipc::Error>>::from
FUNC m 15d10 13 0 <minidumper::errors::Error as core::convert::From<std::io::error::Error>>::from
FUNC m 15d30 1d 0 core::ptr::drop_in_place::<<alloc::boxed::Box<dyn std::error::Error + core::marker::Send + core::marker::Sync> as core::convert::From<alloc::string::String>>::from::StringError>
FUNC m 15d50 b0 0 <&str as core::convert::Into<alloc::boxed::Box<dyn std::error::Error + core::marker::Send + core::marker::Sync>>>::into
FUNC m 15e00 8 0 <<alloc::boxed::Box<dyn std::error::Error + core::marker::Send + core::marker::Sync> as core::convert::From<alloc::string::String>>::from::StringError as std::error::Error>::cause
FUNC m 15e10 10 0 <<alloc::boxed::Box<dyn std::error::Error + core::marker::Send + core::marker::Sync> as core::convert::From<alloc::string::String>>::from::StringError as std::error::Error>::type_id
FUNC m 15e20 8 0 <<alloc::boxed::Box<dyn std::error::Error + core::marker::Send + core::marker::Sync> as core::convert::From<alloc::string::String>>::from::StringError as std::error::Error>::backtrace
FUNC m 15e30 11a 0 <minidump_writer::mac::task_dumper::TaskDumpError as core::fmt::Display>::fmt
FUNC m 15f60 17 0 <&&str as core::fmt::Display>::fmt
FUNC m 15f80 d 0 <&minidump_writer::mac::mach::LoadCommandKind as core::fmt::Debug>::fmt
FUNC m 15f90 d 0 <&minidump_writer::mac::mach::KernelError as core::fmt::Display>::fmt
FUNC m 15fa0 2b5 0 <minidump_writer::mac::mach::KernelError as core::fmt::Display>::fmt
FUNC m 16340 87 0 <minidump_writer::mac::mach::LoadCommandKind as core::fmt::Debug>::fmt
FUNC m 16410 7e 0 <minidump_writer::mac::errors::WriterError as core::fmt::Display>::fmt
FUNC m 164a0 28b 0 <crash_context::mac::ExceptionInfo>::resource_exception
FUNC m 16750 1c 0 core::ptr::drop_in_place::<crash_context::mac::ipc::AckReceiver>
FUNC m 16770 6f 0 <crash_context::mac::ipc::Client>::create
FUNC m 167e0 286 0 <crash_context::mac::ipc::Client>::send_crash_context
FUNC m 16a70 d 0 mach2::message::MACH_MSGH_BITS
FUNC m 16a80 1f 0 <mach2::message::mach_msg_port_descriptor_t>::new
FUNC m 16aa0 f 0 mach2::traps::mach_task_self
FUNC m 16ab0 1c 0 alloc::alloc::box_free::<dyn clap::builder::value_parser::AnyValueParser, alloc::alloc::Global>
FUNC m 16ad0 1e 0 core::ptr::drop_in_place::<indexmap::Bucket<alloc::string::String, ()>>
FUNC m 16af0 1d1 0 core::ptr::drop_in_place::<indexmap::Bucket<clap::util::id::Id, clap::parser::matches::matched_arg::MatchedArg>>
FUNC m 16cd0 1a 0 core::ptr::drop_in_place::<core::option::Option<alloc::sync::Arc<std::sync::mutex::Mutex<dyn for<'a> core::ops::function::FnMut<(&'a std::ffi::os_str::OsStr,), Output = core::result::Result<(), alloc::boxed::Box<dyn std::error::Error + core::marker::Send + core::marker::Sync>>> + core::marker::Send>>>>
FUNC m 16cf0 1a 0 core::ptr::drop_in_place::<core::option::Option<alloc::sync::Arc<std::sync::mutex::Mutex<dyn for<'a> core::ops::function::FnMut<(&'a str,), Output = core::result::Result<(), alloc::boxed::Box<dyn std::error::Error + core::marker::Send + core::marker::Sync>>> + core::marker::Send>>>>
FUNC m 16d10 30 0 core::ptr::drop_in_place::<core::option::Option<core::iter::sources::from_fn::FromFn<textwrap::word_splitters::split_words<alloc::boxed::Box<dyn core::iter::traits::iterator::Iterator<Item = textwrap::core::Word>>>::{closure#0}::{closure#0}>>>
FUNC m 16d40 25 0 core::ptr::drop_in_place::<core::option::Option<alloc::string::String>>
FUNC m 16d70 5d 0 core::ptr::drop_in_place::<core::option::Option<clap::builder::value_parser::ValueParser>>
FUNC m 16dd0 1d 0 core::ptr::drop_in_place::<alloc::vec::ExtendElement<std::ffi::os_str::OsString>>
FUNC m 16df0 10d 0 core::ptr::drop_in_place::<alloc::vec::Vec<alloc::vec::Vec<std::ffi::os_str::OsString>>>
FUNC m 16f00 b0 0 core::ptr::drop_in_place::<alloc::vec::Vec<alloc::vec::Vec<clap::parser::matches::any_value::AnyValue>>>
FUNC m 16fb0 8d 0 core::ptr::drop_in_place::<alloc::vec::Vec<alloc::borrow::Cow<str>>>
FUNC m 17040 85 0 core::ptr::drop_in_place::<alloc::vec::Vec<alloc::string::String>>
FUNC m 170d0 8d 0 core::ptr::drop_in_place::<alloc::vec::Vec<clap::mkeymap::Key>>
FUNC m 17160 28 0 core::ptr::drop_in_place::<alloc::vec::Vec<textwrap::core::Word>>
FUNC m 17190 85 0 core::ptr::drop_in_place::<alloc::vec::Vec<std::ffi::os_str::OsString>>
FUNC m 17220 28 0 core::ptr::drop_in_place::<alloc::vec::Vec<clap::util::id::Id>>
FUNC m 17250 98 0 core::ptr::drop_in_place::<alloc::vec::Vec<clap::builder::possible_value::PossibleValue>>
FUNC m 172f0 b6 0 core::ptr::drop_in_place::<alloc::vec::Vec<clap::builder::arg::Arg>>
FUNC m 173b0 b6 0 core::ptr::drop_in_place::<alloc::vec::Vec<clap::builder::command::App>>
FUNC m 17470 d6 0 core::ptr::drop_in_place::<alloc::vec::Vec<clap::builder::arg_group::ArgGroup>>
FUNC m 17550 cf 0 core::ptr::drop_in_place::<alloc::vec::Vec<clap::parser::matches::any_value::AnyValue>>
FUNC m 17620 28 0 core::ptr::drop_in_place::<alloc::vec::Vec<&str>>
FUNC m 17650 28 0 core::ptr::drop_in_place::<alloc::vec::Vec<(clap::util::id::Id, clap::builder::arg_predicate::ArgPredicate, core::option::Option<&std::ffi::os_str::OsStr>)>>
FUNC m 17680 28 0 core::ptr::drop_in_place::<alloc::vec::Vec<(clap::util::id::Id, &str)>>
FUNC m 176b0 28 0 core::ptr::drop_in_place::<alloc::vec::Vec<(char, bool)>>
FUNC m 176e0 86 0 core::ptr::drop_in_place::<alloc::vec::Vec<(f64, alloc::string::String)>>
FUNC m 17770 4c 0 core::ptr::drop_in_place::<alloc::boxed::Box<dyn core::iter::traits::iterator::Iterator<Item = clap::builder::possible_value::PossibleValue>>>
FUNC m 177c0 24 0 core::ptr::drop_in_place::<alloc::borrow::Cow<str>>
FUNC m 177f0 28 0 core::ptr::drop_in_place::<alloc::raw_vec::RawVec<alloc::vec::Vec<std::ffi::os_str::OsString>>>
FUNC m 17820 28 0 core::ptr::drop_in_place::<alloc::raw_vec::RawVec<clap::builder::arg::Arg>>
FUNC m 17850 28 0 core::ptr::drop_in_place::<alloc::raw_vec::RawVec<clap::builder::command::App>>
FUNC m 17880 a 0 core::ptr::drop_in_place::<core::array::iter::IntoIter<(clap::error::context::ContextKind, clap::error::context::ContextValue), 1>>
FUNC m 17890 a 0 core::ptr::drop_in_place::<core::array::iter::IntoIter<(clap::error::context::ContextKind, clap::error::context::ContextValue), 2>>
FUNC m 178a0 a 0 core::ptr::drop_in_place::<core::array::iter::IntoIter<(clap::error::context::ContextKind, clap::error::context::ContextValue), 3>>
FUNC m 178b0 a 0 core::ptr::drop_in_place::<core::array::iter::IntoIter<(clap::error::context::ContextKind, clap::error::context::ContextValue), 4>>
FUNC m 178c0 64 0 core::ptr::drop_in_place::<core::iter::adapters::filter_map::FilterMap<core::iter::adapters::flatten::FlatMap<core::slice::iter::Iter<clap::util::id::Id>, alloc::vec::Vec<clap::util::id::Id>, <clap::parser::validator::Validator>::build_conflict_err::{closure#0}>, <clap::parser::validator::Validator>::build_conflict_err::{closure#1}>>
FUNC m 17930 86 0 core::ptr::drop_in_place::<core::iter::adapters::map::Map<alloc::vec::into_iter::IntoIter<indexmap::Bucket<alloc::string::String, ()>>, <indexmap::Bucket<alloc::string::String, ()>>::key>>
FUNC m 179c0 86 0 core::ptr::drop_in_place::<core::iter::adapters::map::Map<alloc::vec::into_iter::IntoIter<(f64, alloc::string::String)>, clap::parser::features::suggestions::did_you_mean<alloc::string::String, core::iter::adapters::filter_map::FilterMap<core::iter::adapters::map::Map<core::slice::iter::Iter<clap::mkeymap::Key>, <clap::mkeymap::MKeyMap>::keys::{closure#0}>, clap::parser::features::suggestions::did_you_mean_flag<core::iter::adapters::map::Map<core::slice::iter::Iter<alloc::string::String>, <clap::parser::parser::Parser>::did_you_mean_error::{closure#1}>, &str, core::slice::iter::IterMut<clap::builder::command::App>>::{closure#0}::{closure#0}>>::{closure#3}>>
FUNC m 17a50 31 0 core::ptr::drop_in_place::<core::iter::adapters::chain::Chain<core::iter::adapters::cloned::Cloned<core::iter::adapters::filter::Filter<core::iter::adapters::filter::Filter<indexmap::map::Keys<clap::util::id::Id, clap::parser::matches::matched_arg::MatchedArg>, <clap::parser::validator::Validator>::missing_required_error::{closure#0}>, <clap::parser::validator::Validator>::missing_required_error::{closure#1}>>, alloc::vec::into_iter::IntoIter<clap::util::id::Id>>>
FUNC m 17a90 64 0 core::ptr::drop_in_place::<core::iter::adapters::flatten::FlatMap<core::iter::adapters::filter::Filter<core::slice::iter::Iter<clap::builder::arg_group::ArgGroup>, <clap::output::usage::Usage>::get_required_usage_from::{closure#1}>, alloc::vec::Vec<clap::util::id::Id>, <clap::output::usage::Usage>::get_required_usage_from::{closure#2}>>
FUNC m 17b00 b7 0 core::ptr::drop_in_place::<core::iter::adapters::flatten::FlatMap<alloc::boxed::Box<dyn core::iter::traits::iterator::Iterator<Item = textwrap::core::Word>>, core::iter::sources::from_fn::FromFn<textwrap::word_splitters::split_words<alloc::boxed::Box<dyn core::iter::traits::iterator::Iterator<Item = textwrap::core::Word>>>::{closure#0}::{closure#0}>, textwrap::word_splitters::split_words<alloc::boxed::Box<dyn core::iter::traits::iterator::Iterator<Item = textwrap::core::Word>>>::{closure#0}>>
FUNC m 17bc0 36 0 core::ptr::drop_in_place::<std::collections::hash::map::HashMap<&str, &[&str]>>
FUNC m 17c00 11 0 core::ptr::drop_in_place::<<_ as alloc::slice::hack::ConvertVec>::to_vec::DropGuard<alloc::string::String, alloc::alloc::Global>>
FUNC m 17c20 1d 0 core::ptr::drop_in_place::<alloc::string::String>
FUNC m 17c40 137 0 core::ptr::drop_in_place::<clap::mkeymap::MKeyMap>
FUNC m 17d80 9 0 core::ptr::drop_in_place::<alloc::vec::set_len_on_drop::SetLenOnDrop>
FUNC m 17d90 29 0 core::ptr::drop_in_place::<clap::builder::possible_value::PossibleValue>
FUNC m 17dc0 42b 0 core::ptr::drop_in_place::<clap::builder::arg::Arg>
FUNC m 181f0 2f7 0 core::ptr::drop_in_place::<clap::builder::command::App>
FUNC m 184f0 15 0 core::ptr::drop_in_place::<clap::parser::matches::any_value::AnyValue>
FUNC m 18510 ec5 0 alloc::slice::hack::to_vec::<clap::builder::command::App, alloc::alloc::Global>
FUNC m 193e0 38f 0 <alloc::vec::Vec<std::ffi::os_str::OsString>>::resize
FUNC m 19770 5c 0 <alloc::vec::Vec<u8>>::extend_from_slice
FUNC m 197d0 113 0 <alloc::vec::Vec<alloc::string::String> as alloc::vec::spec_extend::SpecExtend<alloc::string::String, core::iter::adapters::map::Map<core::iter::adapters::map::Map<core::iter::adapters::filter::Filter<core::slice::iter::Iter<(&str, bool)>, <clap::builder::command::App>::get_visible_aliases::{closure#0}>, <clap::builder::command::App>::get_visible_aliases::{closure#1}>, <clap::output::help::Help>::sc_spec_vals::{closure#1}>>>::spec_extend
FUNC m 198f0 496 0 <alloc::vec::Vec<textwrap::core::Word> as alloc::vec::spec_extend::SpecExtend<textwrap::core::Word, core::iter::sources::from_fn::FromFn<<textwrap::core::Word>::break_apart::{closure#0}>>>::spec_extend
FUNC m 19d90 29a 0 <alloc::vec::Vec<alloc::borrow::Cow<str>> as alloc::vec::spec_from_iter::SpecFromIter<alloc::borrow::Cow<str>, core::iter::adapters::filter_map::FilterMap<core::slice::iter::Iter<clap::builder::possible_value::PossibleValue>, <clap::builder::possible_value::PossibleValue>::get_visible_quoted_name>>>::from_iter
FUNC m 1a030 c5 0 <alloc::vec::Vec<alloc::borrow::Cow<str>> as alloc::vec::spec_from_iter::SpecFromIter<alloc::borrow::Cow<str>, core::iter::adapters::map::Map<core::iter::adapters::map::Map<core::slice::iter::Iter<&std::ffi::os_str::OsStr>, <clap::output::help::Help>::spec_vals::{closure#0}>, <clap::output::help::Help>::spec_vals::{closure#1}>>>::from_iter
FUNC m 1a100 2ca 0 <alloc::vec::Vec<alloc::string::String> as alloc::vec::spec_from_iter::SpecFromIter<alloc::string::String, core::iter::adapters::filter_map::FilterMap<core::iter::adapters::map::Map<core::slice::iter::Iter<clap::mkeymap::Key>, <clap::mkeymap::MKeyMap>::keys::{closure#0}>, <clap::parser::parser::Parser>::did_you_mean_error::{closure#0}>>>::from_iter
FUNC m 1a3d0 2b7 0 <alloc::vec::Vec<alloc::string::String> as alloc::vec::spec_from_iter::SpecFromIter<alloc::string::String, core::iter::adapters::filter_map::FilterMap<core::iter::adapters::flatten::FlatMap<core::slice::iter::Iter<clap::util::id::Id>, alloc::vec::Vec<clap::util::id::Id>, <clap::parser::validator::Validator>::build_conflict_err::{closure#0}>, <clap::parser::validator::Validator>::build_conflict_err::{closure#1}>>>::from_iter
FUNC m 1a690 2ce 0 <alloc::vec::Vec<alloc::string::String> as alloc::vec::spec_from_iter::SpecFromIter<alloc::string::String, core::iter::adapters::map::Map<core::iter::adapters::map::Map<core::iter::adapters::filter::Filter<core::slice::iter::Iter<(char, bool)>, <clap::builder::command::App>::get_visible_short_flag_aliases::{closure#0}>, <clap::builder::command::App>::get_visible_short_flag_aliases::{closure#1}>, <clap::output::help::Help>::sc_spec_vals::{closure#0}>>>::from_iter
FUNC m 1a960 313 0 <alloc::vec::Vec<alloc::string::String> as alloc::vec::spec_from_iter::SpecFromIter<alloc::string::String, core::iter::adapters::map::Map<core::iter::adapters::filter_map::FilterMap<core::slice::iter::Iter<clap::util::id::Id>, <clap::builder::command::App>::format_group::{closure#0}>, <clap::builder::command::App>::format_group::{closure#1}>>>::from_iter
FUNC m 1ac80 3be 0 <alloc::vec::Vec<alloc::string::String> as alloc::vec::spec_from_iter::SpecFromIter<alloc::string::String, core::iter::adapters::map::Map<core::iter::adapters::filter::Filter<core::iter::adapters::filter::Filter<core::iter::adapters::filter::Filter<core::iter::adapters::filter::Filter<core::iter::adapters::filter::Filter<core::slice::iter::Iter<clap::builder::arg::Arg>, <clap::builder::command::App>::get_positionals::{closure#0}>, <clap::output::usage::Usage>::get_args_tag::{closure#11}>, <clap::output::usage::Usage>::get_args_tag::{closure#12}>, <clap::output::usage::Usage>::get_args_tag::{closure#13}>, <clap::output::usage::Usage>::get_args_tag::{closure#14}>, <clap::output::usage::Usage>::get_args_tag::{closure#15}>>>::from_iter
FUNC m 1b040 30c 0 <alloc::vec::Vec<alloc::string::String> as alloc::vec::spec_from_iter::SpecFromIter<alloc::string::String, core::iter::adapters::map::Map<core::iter::adapters::filter::Filter<core::iter::adapters::filter::Filter<core::iter::adapters::filter::Filter<core::iter::adapters::filter::Filter<core::slice::iter::Iter<clap::builder::arg::Arg>, <clap::builder::command::App>::get_positionals::{closure#0}>, <clap::output::usage::Usage>::get_args_tag::{closure#5}>, <clap::output::usage::Usage>::get_args_tag::{closure#6}>, <clap::output::usage::Usage>::get_args_tag::{closure#7}>, <clap::output::usage::Usage>::get_args_tag::{closure#8}>>>::from_iter
FUNC m 1b350 231 0 <alloc::vec::Vec<alloc::string::String> as alloc::vec::spec_from_iter::SpecFromIter<alloc::string::String, core::iter::adapters::map::Map<core::iter::adapters::filter::Filter<core::slice::iter::Iter<(char, bool)>, <clap::output::help::Help>::spec_vals::{closure#4}>, <clap::output::help::Help>::spec_vals::{closure#5}>>>::from_iter
FUNC m 1b590 14e 0 <alloc::vec::Vec<alloc::string::String> as alloc::vec::spec_from_iter::SpecFromIter<alloc::string::String, core::iter::adapters::map::Map<core::slice::iter::Iter<&str>, <clap::error::Error>::empty_value::{closure#0}>>>::from_iter
FUNC m 1b6e0 14e 0 <alloc::vec::Vec<alloc::string::String> as alloc::vec::spec_from_iter::SpecFromIter<alloc::string::String, core::iter::adapters::map::Map<core::slice::iter::Iter<&str>, <clap::error::Error>::invalid_value::{closure#1}>>>::from_iter
FUNC m 1b830 181 0 <alloc::vec::Vec<alloc::string::String> as alloc::vec::spec_from_iter::SpecFromIter<alloc::string::String, core::iter::adapters::map::Map<core::slice::iter::Iter<&str>, <clap::builder::arg::Arg>::name_no_brackets::{closure#0}>>>::from_iter
FUNC m 1b9c0 1de 0 <alloc::vec::Vec<alloc::string::String> as alloc::vec::spec_from_iter::SpecFromIter<alloc::string::String, core::iter::adapters::map::Map<core::str::iter::Lines, clap::output::help::text_wrapper::{closure#0}>>>::from_iter
FUNC m 1bba0 262 0 <alloc::vec::Vec<textwrap::core::Word> as alloc::vec::spec_from_iter::SpecFromIter<textwrap::core::Word, core::iter::adapters::flatten::FlatMap<alloc::boxed::Box<dyn core::iter::traits::iterator::Iterator<Item = textwrap::core::Word>>, core::iter::sources::from_fn::FromFn<textwrap::word_splitters::split_words<alloc::boxed::Box<dyn core::iter::traits::iterator::Iterator<Item = textwrap::core::Word>>>::{closure#0}::{closure#0}>, textwrap::word_splitters::split_words<alloc::boxed::Box<dyn core::iter::traits::iterator::Iterator<Item = textwrap::core::Word>>>::{closure#0}>>>::from_iter
FUNC m 1be10 27a 0 <alloc::vec::Vec<clap::util::id::Id> as alloc::vec::spec_from_iter::SpecFromIter<clap::util::id::Id, core::iter::adapters::map::Map<core::iter::adapters::filter::Filter<core::slice::iter::Iter<clap::builder::arg::Arg>, <clap::parser::validator::Validator>::validate_required_unless::{closure#0}>, <clap::parser::validator::Validator>::validate_required_unless::{closure#1}>>>::from_iter
FUNC m 1c090 58a 0 <alloc::vec::Vec<clap::util::id::Id> as alloc::vec::spec_from_iter::SpecFromIter<clap::util::id::Id, core::iter::adapters::chain::Chain<core::iter::adapters::cloned::Cloned<core::iter::adapters::filter::Filter<core::iter::adapters::filter::Filter<indexmap::map::Keys<clap::util::id::Id, clap::parser::matches::matched_arg::MatchedArg>, <clap::parser::validator::Validator>::missing_required_error::{closure#0}>, <clap::parser::validator::Validator>::missing_required_error::{closure#1}>>, alloc::vec::into_iter::IntoIter<clap::util::id::Id>>>>::from_iter
FUNC m 1c620 1a0 0 <alloc::vec::Vec<clap::util::id::Id> as alloc::vec::spec_from_iter::SpecFromIter<clap::util::id::Id, core::iter::adapters::cloned::Cloned<core::iter::adapters::chain::Chain<core::iter::adapters::filter::Filter<core::iter::adapters::flatten::FlatMap<core::iter::adapters::filter_map::FilterMap<core::slice::iter::Iter<clap::util::id::Id>, <clap::parser::validator::Validator>::build_conflict_err_usage::{closure#3}>, core::iter::adapters::map::Map<core::slice::iter::Iter<(clap::builder::arg_predicate::ArgPredicate, clap::util::id::Id)>, <clap::parser::validator::Validator>::build_conflict_err_usage::{closure#4}::{closure#0}>, <clap::parser::validator::Validator>::build_conflict_err_usage::{closure#4}>, <clap::parser::validator::Validator>::build_conflict_err_usage::{closure#5}>, core::slice::iter::Iter<clap::util::id::Id>>>>>::from_iter
FUNC m 1c7c0 2ef 0 <alloc::vec::Vec<clap::util::id::Id> as alloc::vec::spec_from_iter::SpecFromIter<clap::util::id::Id, core::iter::adapters::cloned::Cloned<core::iter::adapters::filter::Filter<core::iter::adapters::filter::Filter<core::iter::adapters::filter::Filter<indexmap::map::Keys<clap::util::id::Id, clap::parser::matches::matched_arg::MatchedArg>, <clap::parser::validator::Validator>::build_conflict_err_usage::{closure#0}>, <clap::parser::validator::Validator>::build_conflict_err_usage::{closure#1}>, <clap::parser::validator::Validator>::build_conflict_err_usage::{closure#2}>>>>::from_iter
FUNC m 1cab0 224 0 <alloc::vec::Vec<clap::util::id::Id> as alloc::vec::spec_from_iter::SpecFromIter<clap::util::id::Id, core::iter::adapters::cloned::Cloned<core::iter::adapters::filter::Filter<core::iter::adapters::filter::Filter<indexmap::map::Keys<clap::util::id::Id, clap::parser::matches::matched_arg::MatchedArg>, <clap::parser::parser::Parser>::did_you_mean_error::{closure#2}>, <clap::parser::parser::Parser>::did_you_mean_error::{closure#3}>>>>::from_iter
FUNC m 1cce0 2a7 0 <alloc::vec::Vec<clap::util::id::Id> as alloc::vec::spec_from_iter::SpecFromIter<clap::util::id::Id, core::iter::adapters::cloned::Cloned<core::iter::adapters::filter::Filter<core::iter::adapters::filter::Filter<indexmap::map::Keys<clap::util::id::Id, clap::parser::matches::matched_arg::MatchedArg>, <clap::parser::parser::Parser>::parse_long_arg::{closure#1}>, <clap::parser::parser::Parser>::parse_long_arg::{closure#2}>>>>::from_iter
FUNC m 1cf90 65f 0 <alloc::vec::Vec<clap::util::id::Id> as alloc::vec::spec_from_iter::SpecFromIter<clap::util::id::Id, core::iter::adapters::flatten::FlatMap<core::iter::adapters::filter::Filter<core::slice::iter::Iter<clap::builder::arg_group::ArgGroup>, <clap::output::usage::Usage>::get_required_usage_from::{closure#1}>, alloc::vec::Vec<clap::util::id::Id>, <clap::output::usage::Usage>::get_required_usage_from::{closure#2}>>>::from_iter
FUNC m 1d5f0 3c7 0 <alloc::vec::Vec<clap::builder::possible_value::PossibleValue> as alloc::vec::spec_from_iter::SpecFromIter<clap::builder::possible_value::PossibleValue, alloc::boxed::Box<dyn core::iter::traits::iterator::Iterator<Item = clap::builder::possible_value::PossibleValue>>>>::from_iter
FUNC m 1d9c0 26a 0 <alloc::vec::Vec<&clap::builder::arg::Arg> as alloc::vec::spec_from_iter::SpecFromIter<&clap::builder::arg::Arg, core::iter::adapters::filter::Filter<core::iter::adapters::filter::Filter<core::iter::adapters::filter::Filter<core::slice::iter::Iter<clap::builder::arg::Arg>, <clap::builder::command::App>::get_positionals::{closure#0}>, <clap::builder::command::App>::get_positionals_with_no_heading::{closure#0}>, <clap::output::help::Help>::write_all_args::{closure#0}>>>::from_iter
FUNC m 1dc30 26a 0 <alloc::vec::Vec<&clap::builder::arg::Arg> as alloc::vec::spec_from_iter::SpecFromIter<&clap::builder::arg::Arg, core::iter::adapters::filter::Filter<core::iter::adapters::filter::Filter<core::iter::adapters::filter::Filter<core::slice::iter::Iter<clap::builder::arg::Arg>, <clap::builder::command::App>::get_non_positionals::{closure#0}>, <clap::builder::command::App>::get_non_positionals_with_no_heading::{closure#0}>, <clap::output::help::Help>::write_all_args::{closure#1}>>>::from_iter
FUNC m 1dea0 2a7 0 <alloc::vec::Vec<&clap::builder::arg::Arg> as alloc::vec::spec_from_iter::SpecFromIter<&clap::builder::arg::Arg, core::iter::adapters::filter::Filter<core::iter::adapters::filter::Filter<core::slice::iter::Iter<clap::builder::arg::Arg>, <clap::output::help::Help>::write_all_args::{closure#3}>, <clap::output::help::Help>::write_all_args::{closure#4}>>>::from_iter
FUNC m 1e150 168 0 <alloc::vec::Vec<&clap::builder::arg::Arg> as alloc::vec::spec_from_iter::SpecFromIter<&clap::builder::arg::Arg, core::iter::adapters::filter::Filter<core::slice::iter::Iter<clap::builder::arg::Arg>, <clap::builder::command::App>::get_positionals::{closure#0}>>>::from_iter
FUNC m 1e2c0 161 0 <alloc::vec::Vec<&clap::builder::arg::Arg> as alloc::vec::spec_from_iter::SpecFromIter<&clap::builder::arg::Arg, core::iter::adapters::filter::Filter<core::slice::iter::Iter<clap::builder::arg::Arg>, <clap::builder::command::App>::get_non_positionals::{closure#0}>>>::from_iter
FUNC m 1e430 97 0 <alloc::vec::Vec<&str> as alloc::vec::spec_from_iter::SpecFromIter<&str, core::iter::adapters::map::Map<core::iter::adapters::map::Map<core::iter::adapters::copied::Copied<core::slice::iter::Iter<&str>>, <clap::builder::possible_value::PossibleValue>::new>, <clap::builder::value_parser::BoolValueParser as clap::builder::value_parser::TypedValueParser>::parse_ref::{closure#0}>>>::from_iter
FUNC m 1e4d0 129 0 <alloc::vec::Vec<&str> as alloc::vec::spec_from_iter::SpecFromIter<&str, core::iter::adapters::map::Map<core::iter::adapters::map::Map<core::slice::iter::Iter<std::ffi::os_str::OsString>, <clap_lex::RawArgs>::remaining::{closure#0}>, <clap::parser::parser::Parser>::get_matches_with::{closure#3}>>>::from_iter
FUNC m 1e600 165 0 <alloc::vec::Vec<&str> as alloc::vec::spec_from_iter::SpecFromIter<&str, core::iter::adapters::map::Map<core::iter::adapters::filter::Filter<core::slice::iter::Iter<clap::builder::possible_value::PossibleValue>, <clap::parser::validator::Validator>::validate_arg_values::{closure#1}>, <clap::builder::possible_value::PossibleValue>::get_name>>>::from_iter
FUNC m 1e770 165 0 <alloc::vec::Vec<&str> as alloc::vec::spec_from_iter::SpecFromIter<&str, core::iter::adapters::map::Map<core::iter::adapters::filter::Filter<core::slice::iter::Iter<(&str, bool)>, <clap::output::help::Help>::spec_vals::{closure#2}>, <clap::output::help::Help>::spec_vals::{closure#3}>>>::from_iter
FUNC m 1e8e0 7da 0 <alloc::vec::Vec<&str> as alloc::vec::spec_from_iter::SpecFromIter<&str, core::iter::adapters::filter::Filter<core::iter::adapters::flatten::FlatMap<core::slice::iter::Iter<clap::builder::command::App>, core::iter::adapters::chain::Chain<core::iter::sources::once::Once<&str>, core::iter::adapters::map::Map<core::slice::iter::Iter<(&str, bool)>, <clap::builder::command::App>::get_all_aliases::{closure#0}>>, <clap::builder::command::App>::all_subcommand_names::{closure#0}>, <clap::parser::parser::Parser>::possible_subcommand::{closure#0}>>>::from_iter
FUNC m 1f0c0 323 0 <alloc::vec::Vec<(f64, alloc::string::String)> as alloc::vec::spec_from_iter::SpecFromIter<(f64, alloc::string::String), core::iter::adapters::filter::Filter<core::iter::adapters::map::Map<core::iter::adapters::map::Map<core::slice::iter::Iter<alloc::string::String>, <clap::parser::parser::Parser>::did_you_mean_error::{closure#1}>, clap::parser::features::suggestions::did_you_mean<&str, core::iter::adapters::map::Map<core::slice::iter::Iter<alloc::string::String>, <clap::parser::parser::Parser>::did_you_mean_error::{closure#1}>>::{closure#0}>, clap::parser::features::suggestions::did_you_mean<&str, core::iter::adapters::map::Map<core::slice::iter::Iter<alloc::string::String>, <clap::parser::parser::Parser>::did_you_mean_error::{closure#1}>>::{closure#1}>>>::from_iter
FUNC m 1f3f0 240 0 <alloc::vec::Vec<(f64, alloc::string::String)> as alloc::vec::spec_from_iter::SpecFromIter<(f64, alloc::string::String), core::iter::adapters::filter::Filter<core::iter::adapters::map::Map<core::iter::adapters::filter_map::FilterMap<core::iter::adapters::map::Map<core::slice::iter::Iter<clap::mkeymap::Key>, <clap::mkeymap::MKeyMap>::keys::{closure#0}>, clap::parser::features::suggestions::did_you_mean_flag<core::iter::adapters::map::Map<core::slice::iter::Iter<alloc::string::String>, <clap::parser::parser::Parser>::did_you_mean_error::{closure#1}>, &str, core::slice::iter::IterMut<clap::builder::command::App>>::{closure#0}::{closure#0}>, clap::parser::features::suggestions::did_you_mean<alloc::string::String, core::iter::adapters::filter_map::FilterMap<core::iter::adapters::map::Map<core::slice::iter::Iter<clap::mkeymap::Key>, <clap::mkeymap::MKeyMap>::keys::{closure#0}>, clap::parser::features::suggestions::did_you_mean_flag<core::iter::adapters::map::Map<core::slice::iter::Iter<alloc::string::String>, <clap::parser::parser::Parser>::did_you_mean_error::{closure#1}>, &str, core::slice::iter::IterMut<clap::builder::command::App>>::{closure#0}::{closure#0}>>::{closure#0}>, clap::parser::features::suggestions::did_you_mean<alloc::string::String, core::iter::adapters::filter_map::FilterMap<core::iter::adapters::map::Map<core::slice::iter::Iter<clap::mkeymap::Key>, <clap::mkeymap::MKeyMap>::keys::{closure#0}>, clap::parser::features::suggestions::did_you_mean_flag<core::iter::adapters::map::Map<core::slice::iter::Iter<alloc::string::String>, <clap::parser::parser::Parser>::did_you_mean_error::{closure#1}>, &str, core::slice::iter::IterMut<clap::builder::command::App>>::{closure#0}::{closure#0}>>::{closure#1}>>>::from_iter
FUNC m 1f630 230 0 <alloc::vec::Vec<(f64, alloc::string::String)> as alloc::vec::spec_from_iter::SpecFromIter<(f64, alloc::string::String), core::iter::adapters::filter::Filter<core::iter::adapters::map::Map<core::iter::adapters::flatten::FlatMap<core::slice::iter::Iter<clap::builder::command::App>, core::iter::adapters::chain::Chain<core::iter::sources::once::Once<&str>, core::iter::adapters::map::Map<core::slice::iter::Iter<(&str, bool)>, <clap::builder::command::App>::get_all_aliases::{closure#0}>>, <clap::builder::command::App>::all_subcommand_names::{closure#0}>, clap::parser::features::suggestions::did_you_mean<&str, core::iter::adapters::flatten::FlatMap<core::slice::iter::Iter<clap::builder::command::App>, core::iter::adapters::chain::Chain<core::iter::sources::once::Once<&str>, core::iter::adapters::map::Map<core::slice::iter::Iter<(&str, bool)>, <clap::builder::command::App>::get_all_aliases::{closure#0}>>, <clap::builder::command::App>::all_subcommand_names::{closure#0}>>::{closure#0}>, clap::parser::features::suggestions::did_you_mean<&str, core::iter::adapters::flatten::FlatMap<core::slice::iter::Iter<clap::builder::command::App>, core::iter::adapters::chain::Chain<core::iter::sources::once::Once<&str>, core::iter::adapters::map::Map<core::slice::iter::Iter<(&str, bool)>, <clap::builder::command::App>::get_all_aliases::{closure#0}>>, <clap::builder::command::App>::all_subcommand_names::{closure#0}>>::{closure#1}>>>::from_iter
FUNC m 1f860 323 0 <alloc::vec::Vec<(f64, alloc::string::String)> as alloc::vec::spec_from_iter::SpecFromIter<(f64, alloc::string::String), core::iter::adapters::filter::Filter<core::iter::adapters::map::Map<core::slice::iter::Iter<&str>, clap::parser::features::suggestions::did_you_mean<&&str, core::slice::iter::Iter<&str>>::{closure#0}>, clap::parser::features::suggestions::did_you_mean<&&str, core::slice::iter::Iter<&str>>::{closure#1}>>>::from_iter
FUNC m 1fb90 227 0 <alloc::vec::Vec<(usize, &clap::builder::arg::Arg)> as alloc::vec::spec_from_iter::SpecFromIter<(usize, &clap::builder::arg::Arg), core::iter::adapters::map::Map<core::iter::adapters::filter::Filter<core::iter::adapters::filter::Filter<core::iter::adapters::filter_map::FilterMap<core::iter::adapters::filter::Filter<core::iter::adapters::filter::Filter<core::iter::adapters::chain::Chain<indexmap::set::Iter<clap::util::id::Id>, core::slice::iter::Iter<clap::util::id::Id>>, <clap::output::usage::Usage>::get_required_usage_from::{closure#9}>, <clap::output::usage::Usage>::get_required_usage_from::{closure#10}>, <clap::output::usage::Usage>::get_required_usage_from::{closure#11}>, <clap::output::usage::Usage>::get_required_usage_from::{closure#12}>, <clap::output::usage::Usage>::get_required_usage_from::{closure#13}>, <clap::output::usage::Usage>::get_required_usage_from::{closure#14}>>>::from_iter
FUNC m 1fdc0 256 0 <core::iter::sources::from_fn::FromFn<textwrap::word_splitters::split_words<alloc::boxed::Box<dyn core::iter::traits::iterator::Iterator<Item = textwrap::core::Word>>>::{closure#0}::{closure#0}> as core::iter::traits::iterator::Iterator>::next
FUNC m 20020 238 0 <core::iter::adapters::filter_map::FilterMap<core::iter::adapters::flatten::FlatMap<core::slice::iter::Iter<clap::util::id::Id>, alloc::vec::Vec<clap::util::id::Id>, <clap::parser::validator::Validator>::build_conflict_err::{closure#0}>, <clap::parser::validator::Validator>::build_conflict_err::{closure#1}> as core::iter::traits::iterator::Iterator>::next
FUNC m 20260 269 0 <core::iter::adapters::map::Map<core::str::iter::Lines, clap::output::help::text_wrapper::{closure#0}> as core::iter::traits::iterator::Iterator>::next
FUNC m 204d0 33d 0 <core::iter::adapters::flatten::FlatMap<alloc::boxed::Box<dyn core::iter::traits::iterator::Iterator<Item = textwrap::core::Word>>, core::iter::sources::from_fn::FromFn<textwrap::word_splitters::split_words<alloc::boxed::Box<dyn core::iter::traits::iterator::Iterator<Item = textwrap::core::Word>>>::{closure#0}::{closure#0}>, textwrap::word_splitters::split_words<alloc::boxed::Box<dyn core::iter::traits::iterator::Iterator<Item = textwrap::core::Word>>>::{closure#0}> as core::iter::traits::iterator::Iterator>::next
FUNC m 20810 10c 0 <alloc::vec::Vec<alloc::string::String> as alloc::vec::spec_extend::SpecExtend<alloc::string::String, core::iter::adapters::map::Map<core::slice::iter::Iter<&str>, <clap::error::Error>::invalid_value::{closure#0}>>>::spec_extend
FUNC m 20920 206 0 <alloc::vec::Vec<alloc::string::String> as alloc::vec::spec_from_iter::SpecFromIter<alloc::string::String, core::iter::adapters::map::Map<alloc::vec::into_iter::IntoIter<indexmap::Bucket<alloc::string::String, ()>>, <indexmap::Bucket<alloc::string::String, ()>>::key>>>::from_iter
FUNC m 20b30 1f6 0 <alloc::vec::Vec<alloc::string::String> as alloc::vec::spec_from_iter::SpecFromIter<alloc::string::String, core::iter::adapters::map::Map<alloc::vec::into_iter::IntoIter<(f64, alloc::string::String)>, clap::parser::features::suggestions::did_you_mean<alloc::string::String, core::iter::adapters::filter_map::FilterMap<core::iter::adapters::map::Map<core::slice::iter::Iter<clap::mkeymap::Key>, <clap::mkeymap::MKeyMap>::keys::{closure#0}>, clap::parser::features::suggestions::did_you_mean_flag<core::iter::adapters::map::Map<core::slice::iter::Iter<alloc::string::String>, <clap::parser::parser::Parser>::did_you_mean_error::{closure#1}>, &str, core::slice::iter::IterMut<clap::builder::command::App>>::{closure#0}::{closure#0}>>::{closure#3}>>>::from_iter
FUNC m 20d30 1f6 0 <alloc::vec::Vec<alloc::string::String> as alloc::vec::spec_from_iter::SpecFromIter<alloc::string::String, core::iter::adapters::map::Map<alloc::vec::into_iter::IntoIter<(f64, alloc::string::String)>, clap::parser::features::suggestions::did_you_mean<&str, core::iter::adapters::flatten::FlatMap<core::slice::iter::Iter<clap::builder::command::App>, core::iter::adapters::chain::Chain<core::iter::sources::once::Once<&str>, core::iter::adapters::map::Map<core::slice::iter::Iter<(&str, bool)>, <clap::builder::command::App>::get_all_aliases::{closure#0}>>, <clap::builder::command::App>::all_subcommand_names::{closure#0}>>::{closure#3}>>>::from_iter
FUNC m 20f30 301 0 <alloc::vec::Vec<alloc::vec::Vec<std::ffi::os_str::OsString>> as core::clone::Clone>::clone
FUNC m 21240 24b 0 <alloc::vec::Vec<alloc::vec::Vec<clap::parser::matches::any_value::AnyValue>> as core::clone::Clone>::clone
FUNC m 21490 146 0 <alloc::vec::Vec<alloc::string::String> as core::clone::Clone>::clone
FUNC m 215e0 1f7 0 <alloc::vec::Vec<clap::mkeymap::Key> as core::clone::Clone>::clone
FUNC m 217e0 1ef 0 <alloc::vec::Vec<clap::util::id::Id> as core::clone::Clone>::clone
FUNC m 219d0 214 0 <alloc::vec::Vec<clap::builder::possible_value::PossibleValue> as core::clone::Clone>::clone
FUNC m 21bf0 12ce 0 <alloc::vec::Vec<clap::builder::arg::Arg> as core::clone::Clone>::clone
FUNC m 22ec0 142 0 <alloc::vec::Vec<clap::builder::arg_group::ArgGroup> as core::clone::Clone>::clone
FUNC m 23010 cf 0 <alloc::vec::Vec<(clap::util::id::Id, clap::builder::arg_predicate::ArgPredicate, core::option::Option<&std::ffi::os_str::OsStr>)> as core::clone::Clone>::clone
FUNC m 230e0 63 0 <alloc::vec::Vec<clap::util::graph::Child<clap::util::id::Id>> as core::ops::drop::Drop>::drop
FUNC m 23150 5e 0 <alloc::vec::Vec<alloc::string::String> as core::ops::drop::Drop>::drop
FUNC m 231b0 5e 0 <alloc::vec::Vec<std::ffi::os_str::OsString> as core::ops::drop::Drop>::drop
FUNC m 23210 f9 0 <alloc::vec::Vec<(clap::error::context::ContextKind, clap::error::context::ContextValue)> as core::ops::drop::Drop>::drop
FUNC m 23310 8b 0 alloc::raw_vec::finish_grow::<alloc::alloc::Global>
FUNC m 233a0 a5 0 <alloc::raw_vec::RawVec<indexmap::Bucket<alloc::string::String, ()>>>::reserve_exact
FUNC m 23450 b4 0 <alloc::raw_vec::RawVec<clap::util::graph::Child<clap::util::id::Id>>>::reserve_for_push
FUNC m 23510 a5 0 <alloc::raw_vec::RawVec<indexmap::Bucket<clap::util::id::Id, clap::parser::matches::matched_arg::MatchedArg>>>::reserve_exact
FUNC m 235c0 b4 0 <alloc::raw_vec::RawVec<indexmap::Bucket<clap::util::id::Id, clap::parser::matches::matched_arg::MatchedArg>>>::reserve_for_push
FUNC m 23680 a5 0 <alloc::raw_vec::RawVec<indexmap::Bucket<clap::util::id::Id, ()>>>::reserve_exact
FUNC m 23730 b4 0 <alloc::raw_vec::RawVec<&[textwrap::core::Word]>>::reserve_for_push
FUNC m 237f0 a5 0 <alloc::raw_vec::RawVec<indexmap::Bucket<&str, ()>>>::reserve_exact
FUNC m 238a0 b4 0 <alloc::raw_vec::RawVec<alloc::vec::Vec<std::ffi::os_str::OsString>>>::reserve_for_push
FUNC m 23960 b4 0 <alloc::raw_vec::RawVec<alloc::borrow::Cow<str>>>::reserve_for_push
FUNC m 23a20 b4 0 <alloc::raw_vec::RawVec<std::ffi::os_str::OsString>>::reserve_for_push
FUNC m 23ae0 b4 0 <alloc::raw_vec::RawVec<(usize, alloc::string::String, &clap::builder::arg::Arg)>>::reserve_for_push
FUNC m 23ba0 b4 0 <alloc::raw_vec::RawVec<textwrap::core::Word>>::reserve_for_push
FUNC m 23c60 b2 0 <alloc::raw_vec::RawVec<&clap::builder::arg::Arg>>::reserve_for_push
FUNC m 23d20 b4 0 <alloc::raw_vec::RawVec<clap::builder::arg::Arg>>::reserve_for_push
FUNC m 23de0 b4 0 <alloc::raw_vec::RawVec<clap::builder::command::App>>::reserve_for_push
FUNC m 23ea0 b4 0 <alloc::raw_vec::RawVec<clap::builder::arg_group::ArgGroup>>::reserve_for_push
FUNC m 23f60 b2 0 <alloc::raw_vec::RawVec<usize>>::reserve_for_push
FUNC m 24020 b4 0 <alloc::raw_vec::RawVec<&str>>::reserve_for_push
FUNC m 240e0 b4 0 <alloc::raw_vec::RawVec<(clap::error::context::ContextKind, clap::error::context::ContextValue)>>::reserve_for_push
FUNC m 241a0 93 0 <alloc::raw_vec::RawVec<u8>>::reserve_for_push
FUNC m 24240 14 0 alloc::alloc::box_free::<[alloc::string::String; 1], alloc::alloc::Global>
FUNC m 24260 14 0 alloc::alloc::box_free::<[alloc::string::String; 2], alloc::alloc::Global>
FUNC m 24280 14 0 alloc::alloc::box_free::<[alloc::string::String; 3], alloc::alloc::Global>
FUNC m 242a0 1c 0 alloc::alloc::box_free::<dyn std::error::Error + core::marker::Send + core::marker::Sync, alloc::alloc::Global>
FUNC m 242c0 14 0 alloc::alloc::box_free::<clap::error::ErrorInner, alloc::alloc::Global>
FUNC m 242e0 51 0 core::ptr::drop_in_place::<core::option::Option<alloc::boxed::Box<dyn std::error::Error + core::marker::Send + core::marker::Sync>>>
FUNC m 24340 25 0 core::ptr::drop_in_place::<core::option::Option<alloc::string::String>>
FUNC m 24370 a1 0 core::ptr::drop_in_place::<core::option::Option<clap::error::Message>>
FUNC m 24420 12 0 core::ptr::drop_in_place::<core::result::Result<(), std::io::error::Error>>
FUNC m 24440 85 0 core::ptr::drop_in_place::<alloc::vec::Vec<alloc::string::String>>
FUNC m 244d0 4c 0 core::ptr::drop_in_place::<alloc::boxed::Box<dyn std::error::Error + core::marker::Send + core::marker::Sync>>
FUNC m 24520 86 0 core::ptr::drop_in_place::<alloc::borrow::Cow<clap::output::fmt::Colorizer>>
FUNC m 245b0 28 0 core::ptr::drop_in_place::<alloc::raw_vec::RawVec<(clap::error::context::ContextKind, clap::error::context::ContextValue)>>
FUNC m 245e0 1d 0 core::ptr::drop_in_place::<alloc::string::String>
FUNC m 24600 132 0 core::ptr::drop_in_place::<clap::error::ErrorInner>
FUNC m 24740 ca 0 core::ptr::drop_in_place::<clap::error::Error>
FUNC m 24810 90 0 core::ptr::drop_in_place::<std::io::error::Error>
FUNC m 248a0 5a 0 core::ptr::drop_in_place::<std::io::stdio::StdinLock>
FUNC m 24900 aa 0 core::ptr::drop_in_place::<clap::error::context::ContextValue>
FUNC m 249b0 85 0 core::ptr::drop_in_place::<clap::output::fmt::Colorizer>
FUNC m 24a40 6 0 core::ptr::drop_in_place::<&core::option::Option<alloc::boxed::Box<dyn std::error::Error + core::marker::Send + core::marker::Sync>>>
FUNC m 24a50 a6 0 core::ptr::drop_in_place::<(clap::error::context::ContextKind, clap::error::context::ContextValue)>
FUNC m 24b00 92 0 <dyn std::error::Error + core::marker::Send + core::marker::Sync as alloc::string::ToString>::to_string
FUNC m 24ba0 8c 0 <isize as alloc::string::ToString>::to_string
FUNC m 24c30 10c 0 <alloc::string::String as core::fmt::Write>::write_char
FUNC m 24d40 5e 0 <alloc::string::String as core::fmt::Write>::write_str
FUNC m 24da0 dd 0 alloc::fmt::format
FUNC m 24e80 17 0 <alloc::string::String as core::fmt::Display>::fmt
FUNC m 24ea0 4df 0 <clap::error::Error>::format
FUNC m 25380 195 0 <clap::error::Error>::exit
FUNC m 25520 be 0 <clap::error::Error>::print
FUNC m 255e0 c7 0 <clap::error::Error>::new
FUNC m 256b0 2b9 0 <clap::error::Error>::for_app
FUNC m 25970 1c4 0 <clap::error::Error>::with_cmd
FUNC m 25b40 d7 0 <clap::error::Error>::insert_context_unchecked
FUNC m 25c20 160 0 <clap::error::Error>::extend_context_unchecked::<1>
FUNC m 25d80 138 0 <clap::error::Error>::extend_context_unchecked::<2>
FUNC m 25ec0 142 0 <clap::error::Error>::extend_context_unchecked::<3>
FUNC m 26010 147 0 <clap::error::Error>::extend_context_unchecked::<4>
FUNC m 26160 3c 0 <clap::error::Error>::get_context
FUNC m 261a0 51b 0 <clap::error::Error>::argument_conflict
FUNC m 266c0 3f1 0 <clap::error::Error>::empty_value
FUNC m 26ac0 3b7 0 <clap::error::Error>::no_equals
FUNC m 26e80 7e9 0 <clap::error::Error>::invalid_value
FUNC m 27670 5e3 0 <clap::error::Error>::invalid_subcommand
FUNC m 27c60 3b7 0 <clap::error::Error>::unrecognized_subcommand
FUNC m 28020 349 0 <clap::error::Error>::missing_required_argument
FUNC m 28370 354 0 <clap::error::Error>::missing_subcommand
FUNC m 286d0 289 0 <clap::error::Error>::invalid_utf8
FUNC m 28960 533 0 <clap::error::Error>::too_many_occurrences
FUNC m 28ea0 491 0 <clap::error::Error>::too_many_values
FUNC m 29340 533 0 <clap::error::Error>::too_few_values
FUNC m 29880 497 0 <clap::error::Error>::value_validation
FUNC m 29d20 533 0 <clap::error::Error>::wrong_number_of_values
FUNC m 2a260 3b7 0 <clap::error::Error>::unexpected_multiple_usage
FUNC m 2a620 6a0 0 <clap::error::Error>::unknown_argument
FUNC m 2acc0 3be 0 <clap::error::Error>::unnecessary_double_dash
FUNC m 2b080 14e7 0 <clap::error::Error>::formatted
FUNC m 2c620 28f 0 <clap::error::Error as core::convert::From<std::io::error::Error>>::from
FUNC m 2c8b0 64 0 clap::error::quote::<&alloc::string::String>
FUNC m 2c920 1ae 0 clap::error::escape::<&alloc::string::String>
FUNC m 2cad0 27 0 <clap::error::Message as core::convert::From<alloc::string::String>>::from
FUNC m 2cb00 85 0 core::ptr::drop_in_place::<alloc::vec::Vec<alloc::string::String>>
FUNC m 2cb90 28 0 core::ptr::drop_in_place::<alloc::vec::Vec<&[textwrap::core::Word]>>
FUNC m 2cbc0 86 0 core::ptr::drop_in_place::<alloc::vec::Vec<(f64, alloc::string::String)>>
FUNC m 2cc50 1e 0 core::ptr::drop_in_place::<alloc::sync::ArcInner<alloc::string::String>>
FUNC m 2cc70 1e 0 core::ptr::drop_in_place::<alloc::sync::ArcInner<std::path::PathBuf>>
FUNC m 2cc90 1e 0 core::ptr::drop_in_place::<alloc::sync::ArcInner<std::ffi::os_str::OsString>>
FUNC m 2ccb0 24 0 core::ptr::drop_in_place::<alloc::borrow::Cow<str>>
FUNC m 2cce0 95 0 core::ptr::drop_in_place::<alloc::vec::into_iter::IntoIter<alloc::string::String>>
FUNC m 2cd80 28 0 core::ptr::drop_in_place::<alloc::vec::into_iter::IntoIter<clap::util::id::Id>>
FUNC m 2cdb0 11 0 core::ptr::drop_in_place::<core::iter::adapters::map::map_fold<&alloc::string::String, alloc::string::String, (), <clap::parser::parser::Parser>::match_arg_error::{closure#0}, core::iter::traits::iterator::Iterator::for_each::call<alloc::string::String, <alloc::vec::Vec<alloc::string::String> as alloc::vec::spec_extend::SpecExtend<alloc::string::String, core::iter::adapters::map::Map<core::slice::iter::Iter<alloc::string::String>, <clap::parser::parser::Parser>::match_arg_error::{closure#0}>>>::spec_extend::{closure#0}>::{closure#0}>::{closure#0}>
FUNC m 2cdd0 11 0 core::ptr::drop_in_place::<core::iter::adapters::map::map_fold<&std::ffi::os_str::OsString, &std::ffi::os_str::OsStr, (), <clap_lex::RawArgs>::remaining::{closure#0}, core::iter::adapters::map::map_fold<&std::ffi::os_str::OsStr, &str, (), <clap::parser::parser::Parser>::get_matches_with::{closure#3}, core::iter::traits::iterator::Iterator::for_each::call<&str, <alloc::vec::Vec<&str> as alloc::vec::spec_extend::SpecExtend<&str, core::iter::adapters::map::Map<core::iter::adapters::map::Map<core::slice::iter::Iter<std::ffi::os_str::OsString>, <clap_lex::RawArgs>::remaining::{closure#0}>, <clap::parser::parser::Parser>::get_matches_with::{closure#3}>>>::spec_extend::{closure#0}>::{closure#0}>::{closure#0}>::{closure#0}>
FUNC m 2cdf0 9 0 core::ptr::drop_in_place::<core::iter::adapters::map::map_fold<&&std::ffi::os_str::OsStr, alloc::borrow::Cow<str>, (), <clap::output::help::Help>::spec_vals::{closure#0}, core::iter::adapters::map::map_fold<alloc::borrow::Cow<str>, alloc::borrow::Cow<str>, (), <clap::output::help::Help>::spec_vals::{closure#1}, core::iter::traits::iterator::Iterator::for_each::call<alloc::borrow::Cow<str>, <alloc::vec::Vec<alloc::borrow::Cow<str>> as alloc::vec::spec_extend::SpecExtend<alloc::borrow::Cow<str>, core::iter::adapters::map::Map<core::iter::adapters::map::Map<core::slice::iter::Iter<&std::ffi::os_str::OsStr>, <clap::output::help::Help>::spec_vals::{closure#0}>, <clap::output::help::Help>::spec_vals::{closure#1}>>>::spec_extend::{closure#0}>::{closure#0}>::{closure#0}>::{closure#0}>
FUNC m 2ce00 1d 0 core::ptr::drop_in_place::<alloc::string::String>
FUNC m 2ce20 1d 0 core::ptr::drop_in_place::<std::path::PathBuf>
FUNC m 2ce40 1d 0 core::ptr::drop_in_place::<std::ffi::os_str::OsString>
FUNC m 2ce60 49 0 core::ptr::drop_in_place::<(usize, (usize, (alloc::string::String, core::option::Option<alloc::string::String>)))>
FUNC m 2ceb0 6 0 core::ptr::drop_in_place::<bool>
FUNC m 2cec0 283 0 textwrap::wrap_algorithms::wrap_first_fit::<textwrap::core::Word>
FUNC m 2d150 2e9 0 <core::iter::adapters::map::Map<core::iter::adapters::map::Map<core::slice::iter::Iter<&std::ffi::os_str::OsStr>, <clap::output::help::Help>::spec_vals::{closure#0}>, <clap::output::help::Help>::spec_vals::{closure#1}> as core::iter::traits::iterator::Iterator>::fold::<(), core::iter::traits::iterator::Iterator::for_each::call<alloc::borrow::Cow<str>, <alloc::vec::Vec<alloc::borrow::Cow<str>> as alloc::vec::spec_extend::SpecExtend<alloc::borrow::Cow<str>, core::iter::adapters::map::Map<core::iter::adapters::map::Map<core::slice::iter::Iter<&std::ffi::os_str::OsStr>, <clap::output::help::Help>::spec_vals::{closure#0}>, <clap::output::help::Help>::spec_vals::{closure#1}>>>::spec_extend::{closure#0}>::{closure#0}>
FUNC m 2d440 1e9 0 <core::iter::adapters::map::Map<core::iter::adapters::filter_map::FilterMap<core::iter::adapters::map::Map<core::slice::iter::Iter<clap::mkeymap::Key>, <clap::mkeymap::MKeyMap>::keys::{closure#0}>, clap::parser::features::suggestions::did_you_mean_flag<core::iter::adapters::map::Map<core::slice::iter::Iter<alloc::string::String>, <clap::parser::parser::Parser>::did_you_mean_error::{closure#1}>, &str, core::slice::iter::IterMut<clap::builder::command::App>>::{closure#0}::{closure#0}>, clap::parser::features::suggestions::did_you_mean<alloc::string::String, core::iter::adapters::filter_map::FilterMap<core::iter::adapters::map::Map<core::slice::iter::Iter<clap::mkeymap::Key>, <clap::mkeymap::MKeyMap>::keys::{closure#0}>, clap::parser::features::suggestions::did_you_mean_flag<core::iter::adapters::map::Map<core::slice::iter::Iter<alloc::string::String>, <clap::parser::parser::Parser>::did_you_mean_error::{closure#1}>, &str, core::slice::iter::IterMut<clap::builder::command::App>>::{closure#0}::{closure#0}>>::{closure#0}> as core::iter::traits::iterator::Iterator>::try_fold::<(), core::iter::traits::iterator::Iterator::find::check<(f64, alloc::string::String), &mut clap::parser::features::suggestions::did_you_mean<alloc::string::String, core::iter::adapters::filter_map::FilterMap<core::iter::adapters::map::Map<core::slice::iter::Iter<clap::mkeymap::Key>, <clap::mkeymap::MKeyMap>::keys::{closure#0}>, clap::parser::features::suggestions::did_you_mean_flag<core::iter::adapters::map::Map<core::slice::iter::Iter<alloc::string::String>, <clap::parser::parser::Parser>::did_you_mean_error::{closure#1}>, &str, core::slice::iter::IterMut<clap::builder::command::App>>::{closure#0}::{closure#0}>>::{closure#1}>::{closure#0}, core::ops::control_flow::ControlFlow<(f64, alloc::string::String)>>
FUNC m 2d630 18a 0 <core::iter::adapters::map::Map<core::iter::adapters::flatten::FlatMap<core::slice::iter::Iter<clap::builder::command::App>, core::iter::adapters::chain::Chain<core::iter::sources::once::Once<&str>, core::iter::adapters::map::Map<core::slice::iter::Iter<(&str, bool)>, <clap::builder::command::App>::get_all_aliases::{closure#0}>>, <clap::builder::command::App>::all_subcommand_names::{closure#0}>, clap::parser::features::suggestions::did_you_mean<&str, core::iter::adapters::flatten::FlatMap<core::slice::iter::Iter<clap::builder::command::App>, core::iter::adapters::chain::Chain<core::iter::sources::once::Once<&str>, core::iter::adapters::map::Map<core::slice::iter::Iter<(&str, bool)>, <clap::builder::command::App>::get_all_aliases::{closure#0}>>, <clap::builder::command::App>::all_subcommand_names::{closure#0}>>::{closure#0}> as core::iter::traits::iterator::Iterator>::try_fold::<(), core::iter::traits::iterator::Iterator::find::check<(f64, alloc::string::String), &mut clap::parser::features::suggestions::did_you_mean<&str, core::iter::adapters::flatten::FlatMap<core::slice::iter::Iter<clap::builder::command::App>, core::iter::adapters::chain::Chain<core::iter::sources::once::Once<&str>, core::iter::adapters::map::Map<core::slice::iter::Iter<(&str, bool)>, <clap::builder::command::App>::get_all_aliases::{closure#0}>>, <clap::builder::command::App>::all_subcommand_names::{closure#0}>>::{closure#1}>::{closure#0}, core::ops::control_flow::ControlFlow<(f64, alloc::string::String)>>
FUNC m 2d7c0 10c 0 <core::iter::adapters::map::Map<core::iter::adapters::flatten::Flatten<core::slice::iter::Iter<alloc::vec::Vec<clap::parser::matches::any_value::AnyValue>>>, <clap::parser::matches::matched_arg::MatchedArg>::infer_type_id::{closure#0}::{closure#0}> as core::iter::traits::iterator::Iterator>::try_fold::<(), core::iter::traits::iterator::Iterator::find::check<clap::parser::matches::any_value::AnyValueId, <clap::parser::matches::matched_arg::MatchedArg>::infer_type_id::{closure#0}::{closure#1}>::{closure#0}, core::ops::control_flow::ControlFlow<clap::parser::matches::any_value::AnyValueId>>
FUNC m 2d8d0 106 0 <core::iter::adapters::map::Map<core::slice::iter::Iter<alloc::string::String>, <clap::parser::parser::Parser>::match_arg_error::{closure#0}> as core::iter::traits::iterator::Iterator>::fold::<(), core::iter::traits::iterator::Iterator::for_each::call<alloc::string::String, <alloc::vec::Vec<alloc::string::String> as alloc::vec::spec_extend::SpecExtend<alloc::string::String, core::iter::adapters::map::Map<core::slice::iter::Iter<alloc::string::String>, <clap::parser::parser::Parser>::match_arg_error::{closure#0}>>>::spec_extend::{closure#0}>::{closure#0}>
FUNC m 2d9e0 25c 0 <core::iter::adapters::map::Map<core::slice::iter::Iter<clap::util::id::Id>, <clap::parser::validator::Validator>::build_conflict_err::{closure#0}> as core::iter::traits::iterator::Iterator>::try_fold::<(), <core::iter::adapters::flatten::FlattenCompat<_, _> as core::iter::traits::iterator::Iterator>::try_fold::flatten<alloc::vec::Vec<clap::util::id::Id>, (), core::ops::control_flow::ControlFlow<alloc::string::String>, core::iter::traits::iterator::Iterator::find_map::check<clap::util::id::Id, alloc::string::String, &mut <clap::parser::validator::Validator>::build_conflict_err::{closure#1}>::{closure#0}>::{closure#0}, core::ops::control_flow::ControlFlow<alloc::string::String>>
FUNC m 2dc40 12a 0 <core::iter::adapters::map::Map<alloc::vec::into_iter::IntoIter<alloc::string::String>, <indexmap::set::IndexSet<alloc::string::String> as core::iter::traits::collect::Extend<alloc::string::String>>::extend<alloc::vec::Vec<alloc::string::String>>::{closure#0}> as core::iter::traits::iterator::Iterator>::fold::<(), core::iter::traits::iterator::Iterator::for_each::call<(alloc::string::String, ()), <indexmap::map::IndexMap<alloc::string::String, ()> as core::iter::traits::collect::Extend<(alloc::string::String, ())>>::extend<core::iter::adapters::map::Map<alloc::vec::into_iter::IntoIter<alloc::string::String>, <indexmap::set::IndexSet<alloc::string::String> as core::iter::traits::collect::Extend<alloc::string::String>>::extend<alloc::vec::Vec<alloc::string::String>>::{closure#0}>>::{closure#0}>::{closure#0}>
FUNC m 2dd70 10 0 <std::ffi::os_str::OsString as core::any::Any>::type_id
FUNC m 2dd80 1b8 0 <&mut <clap::builder::possible_value::PossibleValue>::get_visible_quoted_name as core::ops::function::FnMut<(&clap::builder::possible_value::PossibleValue,)>>::call_mut
FUNC m 2df40 d 0 <&clap::parser::matches::any_value::AnyValueId as core::fmt::Debug>::fmt
FUNC m 2df50 8 0 <<alloc::boxed::Box<dyn std::error::Error + core::marker::Send + core::marker::Sync> as core::convert::From<alloc::string::String>>::from::StringError as std::error::Error>::cause
FUNC m 2df60 8 0 <<alloc::boxed::Box<dyn std::error::Error + core::marker::Send + core::marker::Sync> as core::convert::From<alloc::string::String>>::from::StringError as std::error::Error>::source
FUNC m 2df70 10 0 <<alloc::boxed::Box<dyn std::error::Error + core::marker::Send + core::marker::Sync> as core::convert::From<alloc::string::String>>::from::StringError as std::error::Error>::type_id
FUNC m 2df80 8 0 <<alloc::boxed::Box<dyn std::error::Error + core::marker::Send + core::marker::Sync> as core::convert::From<alloc::string::String>>::from::StringError as std::error::Error>::backtrace
FUNC m 2df90 37 0 std::collections::hash::map::RandomState::new::KEYS::__getit
FUNC m 2dfd0 34 0 <clap::builder::possible_value::PossibleValue>::new
FUNC m 2e010 b9 0 <clap::builder::possible_value::PossibleValue>::matches
FUNC m 2e0d0 ad 0 <clap::parser::error::MatchesError as core::fmt::Display>::fmt
FUNC m 2e180 f 0 <clap::parser::matches::any_value::AnyValueId as core::cmp::PartialEq>::eq
FUNC m 2e190 6a4 0 clap::parser::features::suggestions::did_you_mean_flag::<core::iter::adapters::map::Map<core::slice::iter::Iter<alloc::string::String>, <clap::parser::parser::Parser>::did_you_mean_error::{closure#1}>, &str, core::slice::iter::IterMut<clap::builder::command::App>>
FUNC m 2e840 320 0 clap::parser::features::suggestions::did_you_mean_flag::<core::iter::adapters::map::Map<core::slice::iter::Iter<alloc::string::String>, <clap::parser::parser::Parser>::did_you_mean_error::{closure#1}>, &str, core::slice::iter::IterMut<clap::builder::command::App>>::{closure#0}
FUNC m 2eb60 e2b 0 <termcolor::Ansi<alloc::vec::Vec<u8>>>::write_color
FUNC m 2f9f0 8 0 <clap::builder::arg_settings::ArgFlags as core::default::Default>::default
FUNC m 2fa00 8 0 <clap::builder::arg_settings::ArgFlags>::insert
FUNC m 2fa10 a 0 <clap::builder::arg_settings::ArgFlags>::remove
FUNC m 2fa20 d8 0 <clap::builder::arg_settings::ArgFlags>::is_set
FUNC m 2fb60 14 0 <clap::builder::arg_settings::ArgFlags as core::convert::From<clap::builder::arg_settings::ArgSettings>>::from
FUNC m 2fb80 171 0 <hashbrown::raw::inner::RawTable<usize>>::remove_entry::<indexmap::map::core::equivalent<clap::util::id::Id, clap::parser::matches::matched_arg::MatchedArg, clap::util::id::Id>::{closure#0}>
FUNC m 2fd00 15c 0 <hashbrown::raw::inner::RawTable<usize>>::insert::<indexmap::map::core::get_hash<alloc::string::String, ()>::{closure#0}>
FUNC m 2fe60 15c 0 <hashbrown::raw::inner::RawTable<usize>>::insert::<indexmap::map::core::get_hash<clap::util::id::Id, clap::parser::matches::matched_arg::MatchedArg>::{closure#0}>
FUNC m 2ffc0 15c 0 <hashbrown::raw::inner::RawTable<usize>>::insert::<indexmap::map::core::get_hash<clap::util::id::Id, ()>::{closure#0}>
FUNC m 30120 15c 0 <hashbrown::raw::inner::RawTable<usize>>::insert::<indexmap::map::core::get_hash<&str, ()>::{closure#0}>
FUNC m 30280 50d 0 alloc::str::join_generic_copy::<str, u8, alloc::borrow::Cow<str>>
FUNC m 307b0 53d 0 alloc::str::join_generic_copy::<str, u8, alloc::string::String>
FUNC m 30d10 1c 0 alloc::alloc::box_free::<dyn core::iter::traits::iterator::Iterator<Item = textwrap::core::Word>, alloc::alloc::Global>
FUNC m 30d30 7 0 core::ptr::drop_in_place::<core::cell::UnsafeCell<dyn for<'a> core::ops::function::FnMut<(&'a std::ffi::os_str::OsStr,), Output = core::result::Result<(), alloc::boxed::Box<dyn std::error::Error + core::marker::Send + core::marker::Sync>>> + core::marker::Send>>
FUNC m 30d40 30 0 core::ptr::drop_in_place::<core::option::Option<core::iter::sources::from_fn::FromFn<textwrap::word_splitters::split_words<alloc::boxed::Box<dyn core::iter::traits::iterator::Iterator<Item = textwrap::core::Word>>>::{closure#0}::{closure#0}>>>
FUNC m 30d70 28 0 core::ptr::drop_in_place::<alloc::vec::Vec<textwrap::core::Word>>
FUNC m 30da0 1d 0 core::ptr::drop_in_place::<alloc::vec::Vec<u8>>
FUNC m 30dc0 40 0 core::ptr::drop_in_place::<hashbrown::scopeguard::ScopeGuard<hashbrown::raw::inner::RawTableInner<hashbrown::raw::inner::alloc::inner::Global>, <hashbrown::raw::inner::RawTableInner<hashbrown::raw::inner::alloc::inner::Global>>::prepare_resize::{closure#0}>>
FUNC m 30e00 b9 0 core::ptr::drop_in_place::<hashbrown::scopeguard::ScopeGuard<&mut hashbrown::raw::inner::RawTableInner<hashbrown::raw::inner::alloc::inner::Global>, <hashbrown::raw::inner::RawTableInner<hashbrown::raw::inner::alloc::inner::Global>>::rehash_in_place::{closure#0}>>
FUNC m 30ec0 b7 0 core::ptr::drop_in_place::<core::iter::adapters::flatten::FlatMap<alloc::boxed::Box<dyn core::iter::traits::iterator::Iterator<Item = textwrap::core::Word>>, core::iter::sources::from_fn::FromFn<textwrap::word_splitters::split_words<alloc::boxed::Box<dyn core::iter::traits::iterator::Iterator<Item = textwrap::core::Word>>>::{closure#0}::{closure#0}>, textwrap::word_splitters::split_words<alloc::boxed::Box<dyn core::iter::traits::iterator::Iterator<Item = textwrap::core::Word>>>::{closure#0}>>
FUNC m 30f80 6 0 core::ptr::drop_in_place::<&clap::builder::arg::ArgProvider>
FUNC m 30f90 5ce 0 textwrap::core::break_words::<core::iter::adapters::flatten::FlatMap<alloc::boxed::Box<dyn core::iter::traits::iterator::Iterator<Item = textwrap::core::Word>>, core::iter::sources::from_fn::FromFn<textwrap::word_splitters::split_words<alloc::boxed::Box<dyn core::iter::traits::iterator::Iterator<Item = textwrap::core::Word>>>::{closure#0}::{closure#0}>, textwrap::word_splitters::split_words<alloc::boxed::Box<dyn core::iter::traits::iterator::Iterator<Item = textwrap::core::Word>>>::{closure#0}>>
FUNC m 31560 62 0 <alloc::sync::Arc<dyn core::any::Any + core::marker::Send + core::marker::Sync>>::drop_slow
FUNC m 315d0 fd 0 <alloc::sync::Arc<std::sync::mutex::Mutex<dyn for<'a> core::ops::function::FnMut<(&'a std::ffi::os_str::OsStr,), Output = core::result::Result<(), alloc::boxed::Box<dyn std::error::Error + core::marker::Send + core::marker::Sync>>> + core::marker::Send>>>::drop_slow
FUNC m 316d0 fd 0 <alloc::sync::Arc<std::sync::mutex::Mutex<dyn for<'a> core::ops::function::FnMut<(&'a str,), Output = core::result::Result<(), alloc::boxed::Box<dyn std::error::Error + core::marker::Send + core::marker::Sync>>> + core::marker::Send>>>::drop_slow
FUNC m 317d0 256 0 <core::iter::sources::from_fn::FromFn<textwrap::word_splitters::split_words<alloc::boxed::Box<dyn core::iter::traits::iterator::Iterator<Item = textwrap::core::Word>>>::{closure#0}::{closure#0}> as core::iter::traits::iterator::Iterator>::next
FUNC m 31a30 534 0 <[&str] as alloc::slice::Join<&str>>::join
FUNC m 31f80 1d6 0 <indexmap::map::core::IndexMapCore<clap::util::id::Id, clap::parser::matches::matched_arg::MatchedArg>>::swap_remove_full::<clap::util::id::Id>
FUNC m 32160 48 0 <std::thread::local::fast::Key<core::cell::Cell<(u64, u64)>>>::try_initialize::<<std::collections::hash::map::RandomState>::new::KEYS::__getit::{closure#0}>
FUNC m 321b0 14 0 alloc::alloc::box_free::<std::sys::unix::locks::pthread_mutex::Mutex, alloc::alloc::Global>
FUNC m 321d0 1e 0 core::ptr::drop_in_place::<indexmap::Bucket<alloc::string::String, ()>>
FUNC m 321f0 e 0 core::ptr::drop_in_place::<indexmap::Bucket<clap::util::id::Id, clap::parser::matches::matched_arg::MatchedArg>>
FUNC m 32200 10d 0 core::ptr::drop_in_place::<alloc::vec::Vec<alloc::vec::Vec<std::ffi::os_str::OsString>>>
FUNC m 32310 28 0 core::ptr::drop_in_place::<alloc::raw_vec::RawVec<alloc::vec::Vec<std::ffi::os_str::OsString>>>
FUNC m 32340 1d 0 core::ptr::drop_in_place::<alloc::string::String>
FUNC m 32360 1d1 0 core::ptr::drop_in_place::<clap::parser::matches::matched_arg::MatchedArg>
FUNC m 32540 1d 0 core::ptr::drop_in_place::<<alloc::boxed::Box<dyn std::error::Error + core::marker::Send + core::marker::Sync> as core::convert::From<alloc::string::String>>::from::StringError>
FUNC m 32560 6 0 core::ptr::drop_in_place::<&mut alloc::string::String>
FUNC m 32570 151 0 <std::collections::hash::map::RandomState as core::hash::BuildHasher>::hash_one::<&clap::util::id::Id>
FUNC m 326d0 15b 0 <std::collections::hash::map::RandomState as core::hash::BuildHasher>::hash_one::<&str>
FUNC m 32830 29f 0 <indexmap::map::core::IndexMapCore<alloc::string::String, ()>>::insert_full
FUNC m 32ad0 160 0 <indexmap::map::core::IndexMapCore<clap::util::id::Id, clap::parser::matches::matched_arg::MatchedArg>>::insert_full
FUNC m 32c30 f4 0 <indexmap::map::core::IndexMapCore<clap::util::id::Id, clap::parser::matches::matched_arg::MatchedArg>>::push
FUNC m 32d30 146 0 <indexmap::map::core::IndexMapCore<clap::util::id::Id, ()>>::insert_full
FUNC m 32e80 1cb 0 <indexmap::map::core::IndexMapCore<&str, ()>>::insert_full
FUNC m 33050 bf 0 <indexmap::map::core::Entry<clap::util::id::Id, clap::parser::matches::matched_arg::MatchedArg>>::or_insert
FUNC m 33110 fe 0 <indexmap::map::core::IndexMapCore<clap::util::id::Id, clap::parser::matches::matched_arg::MatchedArg>>::entry
FUNC m 33210 10 0 <alloc::string::String as core::any::Any>::type_id
FUNC m 33220 10c 0 <&mut alloc::string::String as core::fmt::Write>::write_char
FUNC m 33330 58 0 <&mut alloc::string::String as core::fmt::Write>::write_fmt
FUNC m 33390 60 0 <&mut alloc::string::String as core::fmt::Write>::write_str
FUNC m 333f0 1ed 0 <core::hash::sip::Hasher<core::hash::sip::Sip13Rounds> as core::hash::Hasher>::write
FUNC m 335e0 17 0 <&alloc::string::String as core::fmt::Display>::fmt
FUNC m 33600 55 0 <alloc::string::String as core::fmt::Write>::write_fmt
FUNC m 33660 1c 0 alloc::alloc::box_free::<dyn clap::builder::value_parser::AnyValueParser, alloc::alloc::Global>
FUNC m 33680 1a 0 core::ptr::drop_in_place::<core::option::Option<alloc::sync::Arc<std::sync::mutex::Mutex<dyn for<'a> core::ops::function::FnMut<(&'a std::ffi::os_str::OsStr,), Output = core::result::Result<(), alloc::boxed::Box<dyn std::error::Error + core::marker::Send + core::marker::Sync>>> + core::marker::Send>>>>
FUNC m 336a0 1a 0 core::ptr::drop_in_place::<core::option::Option<alloc::sync::Arc<std::sync::mutex::Mutex<dyn for<'a> core::ops::function::FnMut<(&'a str,), Output = core::result::Result<(), alloc::boxed::Box<dyn std::error::Error + core::marker::Send + core::marker::Sync>>> + core::marker::Send>>>>
FUNC m 336c0 5d 0 core::ptr::drop_in_place::<core::option::Option<clap::builder::value_parser::ValueParser>>
FUNC m 33720 85 0 core::ptr::drop_in_place::<alloc::vec::Vec<alloc::string::String>>
FUNC m 337b0 28 0 core::ptr::drop_in_place::<alloc::vec::Vec<clap::util::id::Id>>
FUNC m 337e0 98 0 core::ptr::drop_in_place::<alloc::vec::Vec<clap::builder::possible_value::PossibleValue>>
FUNC m 33880 28 0 core::ptr::drop_in_place::<alloc::vec::Vec<&std::ffi::os_str::OsStr>>
FUNC m 338b0 28 0 core::ptr::drop_in_place::<alloc::vec::Vec<(clap::util::id::Id, clap::builder::arg_predicate::ArgPredicate, core::option::Option<&std::ffi::os_str::OsStr>)>>
FUNC m 338e0 28 0 core::ptr::drop_in_place::<alloc::vec::Vec<(clap::util::id::Id, &str)>>
FUNC m 33910 28 0 core::ptr::drop_in_place::<alloc::vec::Vec<(char, bool)>>
FUNC m 33940 11 0 core::ptr::drop_in_place::<<_ as alloc::slice::hack::ConvertVec>::to_vec::DropGuard<clap::builder::possible_value::PossibleValue, alloc::alloc::Global>>
FUNC m 33960 1d 0 core::ptr::drop_in_place::<alloc::string::String>
FUNC m 33980 56 0 <&clap::builder::arg::ArgProvider as core::fmt::Debug>::fmt
FUNC m 339e0 398 0 <clap::builder::arg::Arg>::new::<&str>
FUNC m 33d80 1e9 0 <clap::builder::arg::Arg>::value_names
FUNC m 33f70 2cb 0 <clap::builder::arg::Arg>::get_possible_values2
FUNC m 34250 20 0 <clap::builder::arg::Arg>::is_positional
FUNC m 34270 44e 0 <clap::builder::arg::Arg>::_build
FUNC m 346f0 281 0 <clap::builder::arg::Arg>::name_no_brackets
FUNC m 34980 a30 0 <clap::builder::arg::Arg as core::fmt::Display>::fmt
FUNC m 353b0 8 0 <clap::builder::arg::ArgProvider as core::default::Default>::default
FUNC m 353c0 8d3 0 clap::builder::arg::display_arg_val::<<clap::output::help::Help>::val::{closure#0}, (), std::io::error::Error>
FUNC m 35ca0 41 0 <clap::builder::arg::DisplayOrder>::set_implicit
FUNC m 35cf0 8 0 <clap::builder::arg::DisplayOrder as core::default::Default>::default
FUNC m 35d00 17d 0 <clap::builder::app_settings::AppFlags>::is_set
FUNC m 35f40 1c 0 alloc::alloc::box_free::<dyn std::error::Error + core::marker::Send + core::marker::Sync, alloc::alloc::Global>
FUNC m 35f60 14 0 alloc::alloc::box_free::<std::io::error::Custom, alloc::alloc::Global>
FUNC m 35f80 10d 0 core::ptr::drop_in_place::<alloc::vec::Vec<alloc::vec::Vec<std::ffi::os_str::OsString>>>
FUNC m 36090 85 0 core::ptr::drop_in_place::<alloc::vec::Vec<alloc::string::String>>
FUNC m 36120 28 0 core::ptr::drop_in_place::<alloc::vec::Vec<clap::util::id::Id>>
FUNC m 36150 28 0 core::ptr::drop_in_place::<alloc::vec::Vec<&str>>
FUNC m 36180 24 0 core::ptr::drop_in_place::<alloc::borrow::Cow<str>>
FUNC m 361b0 28 0 core::ptr::drop_in_place::<alloc::raw_vec::RawVec<alloc::vec::Vec<std::ffi::os_str::OsString>>>
FUNC m 361e0 b7 0 core::ptr::drop_in_place::<indexmap::set::IndexSet<alloc::string::String>>
FUNC m 362a0 6a 0 core::ptr::drop_in_place::<indexmap::set::IndexSet<clap::util::id::Id>>
FUNC m 36310 28 0 core::ptr::drop_in_place::<alloc::vec::into_iter::IntoIter<clap::util::id::Id>>
FUNC m 36340 28 0 core::ptr::drop_in_place::<alloc::vec::into_iter::IntoIter<(usize, &clap::builder::arg::Arg)>>
FUNC m 36370 98 0 core::ptr::drop_in_place::<clap::util::graph::ChildGraph<clap::util::id::Id>>
FUNC m 36410 29 0 core::ptr::drop_in_place::<clap::util::graph::Child<clap::util::id::Id>>
FUNC m 36440 6 0 core::ptr::drop_in_place::<clap::builder::value_parser::RangedI64ValueParser<u8>>
FUNC m 36450 1d 0 core::ptr::drop_in_place::<alloc::string::String>
FUNC m 36470 90 0 core::ptr::drop_in_place::<std::io::error::Error>
FUNC m 36500 1d 0 core::ptr::drop_in_place::<std::ffi::os_str::OsString>
FUNC m 36520 1d1 0 core::ptr::drop_in_place::<clap::parser::matches::matched_arg::MatchedArg>
FUNC m 36700 a 0 core::ptr::drop_in_place::<<std::io::buffered::bufwriter::BufWriter<_>>::flush_buf::BufGuard>
FUNC m 36710 140 0 <hashbrown::map::HashMap<clap::util::id::Id, clap::parser::matches::matched_arg::MatchedArg, std::collections::hash::map::RandomState>>::insert
FUNC m 36850 53 0 <core::iter::adapters::map::Map<core::iter::adapters::copied::Copied<core::slice::iter::Iter<&str>>, <clap::builder::possible_value::PossibleValue>::new> as core::iter::traits::iterator::Iterator>::next
FUNC m 368b0 23 0 <core::iter::adapters::map::Map<core::iter::adapters::copied::Copied<core::slice::iter::Iter<&str>>, <clap::builder::possible_value::PossibleValue>::new> as core::iter::traits::iterator::Iterator>::size_hint
FUNC m 368e0 24 0 <&mut <clap::output::usage::Usage>::get_required_usage_from::{closure#6} as core::ops::function::FnMut<(&&clap::util::id::Id,)>>::call_mut
FUNC m 36910 12d 0 <&mut <clap::output::usage::Usage>::get_args_tag::{closure#8} as core::ops::function::FnOnce<(&clap::builder::arg::Arg,)>>::call_once
FUNC m 36a40 251 0 <std::io::buffered::bufwriter::BufWriter<std::io::stdio::Stderr> as core::ops::drop::Drop>::drop
FUNC m 36d50 251 0 <std::io::buffered::bufwriter::BufWriter<std::io::stdio::Stdout> as core::ops::drop::Drop>::drop
FUNC m 37060 45 0 <core::iter::adapters::map::Map<core::iter::adapters::copied::Copied<core::slice::iter::Iter<&str>>, <clap::builder::possible_value::PossibleValue>::new> as core::iter::traits::iterator::Iterator>::advance_by
FUNC m 370b0 85 0 <core::iter::adapters::map::Map<core::iter::adapters::copied::Copied<core::slice::iter::Iter<&str>>, <clap::builder::possible_value::PossibleValue>::new> as core::iter::traits::iterator::Iterator>::nth
FUNC m 37140 8 0 <core::num::error::ParseIntError as std::error::Error>::cause
FUNC m 37150 10 0 <core::num::error::ParseIntError as std::error::Error>::type_id
FUNC m 37160 8 0 <core::num::error::ParseIntError as std::error::Error>::backtrace
FUNC m 37170 10 0 <core::num::error::TryFromIntError as std::error::Error>::type_id
FUNC m 37180 8 0 <core::num::error::TryFromIntError as std::error::Error>::backtrace
FUNC m 37190 10c 0 <alloc::string::String as core::fmt::Write>::write_char
FUNC m 372a0 5e 0 <alloc::string::String as core::fmt::Write>::write_str
FUNC m 37300 17 0 <alloc::string::String as core::fmt::Display>::fmt
FUNC m 37320 10 0 <clap::builder::value_parser::ValueParser>::string
FUNC m 37330 c3 0 <clap::builder::value_parser::RangedI64ValueParser<u8> as clap::builder::value_parser::AnyValueParser>::parse_ref
FUNC m 37400 c3 0 <clap::builder::value_parser::BoolValueParser as clap::builder::value_parser::AnyValueParser>::parse_ref
FUNC m 374d0 15b 0 <clap::builder::value_parser::StringValueParser as clap::builder::value_parser::AnyValueParser>::parse_ref
FUNC m 37630 16b 0 <clap::builder::value_parser::PathBufValueParser as clap::builder::value_parser::AnyValueParser>::parse_ref
FUNC m 377a0 e1 0 <clap::builder::value_parser::OsStringValueParser as clap::builder::value_parser::AnyValueParser>::parse_ref
FUNC m 37890 10b 0 <clap::builder::value_parser::RangedI64ValueParser<u8> as clap::builder::value_parser::AnyValueParser>::parse
FUNC m 379a0 10b 0 <clap::builder::value_parser::BoolValueParser as clap::builder::value_parser::AnyValueParser>::parse
FUNC m 37ab0 153 0 <clap::builder::value_parser::StringValueParser as clap::builder::value_parser::AnyValueParser>::parse
FUNC m 37c10 153 0 <clap::builder::value_parser::PathBufValueParser as clap::builder::value_parser::AnyValueParser>::parse
FUNC m 37d70 c1 0 <clap::builder::value_parser::OsStringValueParser as clap::builder::value_parser::AnyValueParser>::parse
FUNC m 37e40 10 0 <clap::builder::value_parser::RangedI64ValueParser<u8> as clap::builder::value_parser::AnyValueParser>::type_id
FUNC m 37e50 10 0 <clap::builder::value_parser::BoolValueParser as clap::builder::value_parser::AnyValueParser>::type_id
FUNC m 37e60 10 0 <clap::builder::value_parser::StringValueParser as clap::builder::value_parser::AnyValueParser>::type_id
FUNC m 37e70 10 0 <clap::builder::value_parser::PathBufValueParser as clap::builder::value_parser::AnyValueParser>::type_id
FUNC m 37e80 10 0 <clap::builder::value_parser::OsStringValueParser as clap::builder::value_parser::AnyValueParser>::type_id
FUNC m 37e90 8 0 <clap::builder::value_parser::RangedI64ValueParser<u8> as clap::builder::value_parser::AnyValueParser>::possible_values
FUNC m 37ea0 45 0 <clap::builder::value_parser::BoolValueParser as clap::builder::value_parser::AnyValueParser>::possible_values
FUNC m 37ef0 8 0 <clap::builder::value_parser::StringValueParser as clap::builder::value_parser::AnyValueParser>::possible_values
FUNC m 37f00 58 0 <clap::builder::value_parser::RangedI64ValueParser<u8> as clap::builder::value_parser::AnyValueParser>::clone_any
FUNC m 37f60 12 0 <clap::builder::value_parser::BoolValueParser as clap::builder::value_parser::AnyValueParser>::clone_any
FUNC m 37f80 12 0 <clap::builder::value_parser::StringValueParser as clap::builder::value_parser::AnyValueParser>::clone_any
FUNC m 37fa0 12 0 <clap::builder::value_parser::PathBufValueParser as clap::builder::value_parser::AnyValueParser>::clone_any
FUNC m 37fc0 12 0 <clap::builder::value_parser::OsStringValueParser as clap::builder::value_parser::AnyValueParser>::clone_any
FUNC m 37fe0 17e 0 <clap::builder::value_parser::StringValueParser as clap::builder::value_parser::TypedValueParser>::parse
FUNC m 38160 1b1 0 <clap::builder::value_parser::PathBufValueParser as clap::builder::value_parser::TypedValueParser>::parse
FUNC m 38320 dfe 0 <clap::builder::value_parser::RangedI64ValueParser<u8> as clap::builder::value_parser::TypedValueParser>::parse_ref
FUNC m 39120 2ff 0 <clap::builder::value_parser::BoolValueParser as clap::builder::value_parser::TypedValueParser>::parse_ref
FUNC m 39420 28 0 <u8 as clap::builder::value_parser::ValueParserFactory>::value_parser
FUNC m 39450 3fc 0 <clap::parser::matches::arg_matches::ArgMatches>::get_one::<u8>
FUNC m 39850 107 0 <clap::output::usage::Usage>::create_usage_with_title
FUNC m 39960 54b 0 <clap::output::usage::Usage>::create_usage_no_title
FUNC m 39eb0 19fb 0 <clap::output::usage::Usage>::create_help_usage
FUNC m 3b8b0 c0b 0 <clap::output::usage::Usage>::get_required_usage_from
FUNC m 3c4c0 5d 0 <core::option::Option<usize>>::map::<(), <clap::parser::parser::Parser>::get_matches_with::{closure#4}>
FUNC m 3c520 14 0 alloc::alloc::box_free::<[std::ffi::os_str::OsString; 1], alloc::alloc::Global>
FUNC m 3c540 1c 0 alloc::alloc::box_free::<dyn std::error::Error + core::marker::Send + core::marker::Sync, alloc::alloc::Global>
FUNC m 3c560 14 0 alloc::alloc::box_free::<clap::error::ErrorInner, alloc::alloc::Global>
FUNC m 3c580 14 0 alloc::alloc::box_free::<clap::parser::matches::arg_matches::SubCommand, alloc::alloc::Global>
FUNC m 3c5a0 51 0 core::ptr::drop_in_place::<core::option::Option<alloc::boxed::Box<dyn std::error::Error + core::marker::Send + core::marker::Sync>>>
FUNC m 3c600 63 0 core::ptr::drop_in_place::<core::option::Option<alloc::boxed::Box<clap::parser::matches::arg_matches::SubCommand>>>
FUNC m 3c670 25 0 core::ptr::drop_in_place::<core::option::Option<alloc::string::String>>
FUNC m 3c6a0 a1 0 core::ptr::drop_in_place::<core::option::Option<clap::error::Message>>
FUNC m 3c750 86 0 core::ptr::drop_in_place::<core::option::Option<clap::parser::parser::PendingArg>>
FUNC m 3c7e0 8f 0 core::ptr::drop_in_place::<core::option::Option<clap::parser::parser::ParseResult>>
FUNC m 3c890 4d 0 core::ptr::drop_in_place::<core::option::Option<(alloc::string::String, core::option::Option<alloc::string::String>)>>
FUNC m 3c8e0 85 0 core::ptr::drop_in_place::<alloc::vec::Vec<alloc::string::String>>
FUNC m 3c970 8d 0 core::ptr::drop_in_place::<alloc::vec::Vec<clap::mkeymap::Key>>
FUNC m 3ca00 85 0 core::ptr::drop_in_place::<alloc::vec::Vec<std::ffi::os_str::OsString>>
FUNC m 3ca90 28 0 core::ptr::drop_in_place::<alloc::vec::Vec<clap::util::id::Id>>
FUNC m 3cac0 b6 0 core::ptr::drop_in_place::<alloc::vec::Vec<clap::builder::arg::Arg>>
FUNC m 3cb80 b6 0 core::ptr::drop_in_place::<alloc::vec::Vec<clap::builder::command::App>>
FUNC m 3cc40 d6 0 core::ptr::drop_in_place::<alloc::vec::Vec<clap::builder::arg_group::ArgGroup>>
FUNC m 3cd20 28 0 core::ptr::drop_in_place::<alloc::vec::Vec<&str>>
FUNC m 3cd50 28 0 core::ptr::drop_in_place::<alloc::vec::Vec<(&str, bool)>>
FUNC m 3cd80 28 0 core::ptr::drop_in_place::<alloc::vec::Vec<(char, bool)>>
FUNC m 3cdb0 24 0 core::ptr::drop_in_place::<alloc::borrow::Cow<os_str_bytes::raw_str::RawOsStr>>
FUNC m 3cde0 28 0 core::ptr::drop_in_place::<alloc::raw_vec::RawVec<indexmap::Bucket<clap::util::id::Id, clap::parser::matches::matched_arg::MatchedArg>>>
FUNC m 3ce10 28 0 core::ptr::drop_in_place::<alloc::raw_vec::RawVec<clap::util::graph::Child<clap::util::id::Id>>>
FUNC m 3ce40 28 0 core::ptr::drop_in_place::<alloc::raw_vec::RawVec<alloc::string::String>>
FUNC m 3ce70 28 0 core::ptr::drop_in_place::<alloc::raw_vec::RawVec<clap::builder::arg::Arg>>
FUNC m 3cea0 28 0 core::ptr::drop_in_place::<alloc::raw_vec::RawVec<clap::builder::command::App>>
FUNC m 3ced0 28 0 core::ptr::drop_in_place::<alloc::raw_vec::RawVec<(clap::error::context::ContextKind, clap::error::context::ContextValue)>>
FUNC m 3cf00 95 0 core::ptr::drop_in_place::<alloc::vec::into_iter::IntoIter<std::ffi::os_str::OsString>>
FUNC m 3cfa0 28 0 core::ptr::drop_in_place::<alloc::vec::into_iter::IntoIter<&clap::util::id::Id>>
FUNC m 3cfd0 98 0 core::ptr::drop_in_place::<clap::util::graph::ChildGraph<clap::util::id::Id>>
FUNC m 3d070 36 0 core::ptr::drop_in_place::<std::collections::hash::map::HashMap<&str, &[&str]>>
FUNC m 3d0b0 24 0 core::ptr::drop_in_place::<clap_lex::ParsedArg>
FUNC m 3d0e0 6 0 core::ptr::drop_in_place::<core::fmt::Error>
FUNC m 3d0f0 1d 0 core::ptr::drop_in_place::<alloc::string::String>
FUNC m 3d110 1ed 0 core::ptr::drop_in_place::<clap::error::Error>
FUNC m 3d300 137 0 core::ptr::drop_in_place::<clap::mkeymap::MKeyMap>
FUNC m 3d440 1d 0 core::ptr::drop_in_place::<std::ffi::os_str::OsString>
FUNC m 3d460 85 0 core::ptr::drop_in_place::<clap::output::fmt::Colorizer>
FUNC m 3d4f0 b2 0 core::ptr::drop_in_place::<clap::parser::arg_matcher::ArgMatcher>
FUNC m 3d5b0 8f 0 core::ptr::drop_in_place::<clap::parser::parser::ParseResult>
FUNC m 3d660 99 0 core::ptr::drop_in_place::<clap::parser::validator::Validator>
FUNC m 3d700 54 0 core::ptr::drop_in_place::<clap::builder::value_parser::ValueParser>
FUNC m 3d760 2f7 0 core::ptr::drop_in_place::<clap::builder::command::App>
FUNC m 3da60 151 0 core::ptr::drop_in_place::<clap::parser::matches::arg_matches::ArgMatches>
FUNC m 3dbc0 15 0 core::ptr::drop_in_place::<clap::parser::matches::any_value::AnyValue>
FUNC m 3dbe0 a2 0 <u8 as alloc::string::ToString>::to_string
FUNC m 3dc90 10c 0 <alloc::string::String as core::fmt::Write>::write_char
FUNC m 3dda0 5e 0 <alloc::string::String as core::fmt::Write>::write_str
FUNC m 3de00 dd 0 alloc::fmt::format
FUNC m 3dee0 29 0 alloc::alloc::exchange_malloc
FUNC m 3df10 5577 0 <clap::parser::parser::Parser>::get_matches_with
FUNC m 434f0 252 0 <clap::parser::parser::Parser>::possible_subcommand
FUNC m 43750 ebd 0 <clap::parser::parser::Parser>::parse_help_subcommand::<core::iter::adapters::map::Map<core::slice::iter::Iter<std::ffi::os_str::OsString>, <clap_lex::RawArgs>::remaining::{closure#0}>>
FUNC m 44610 a2b 0 <clap::parser::parser::Parser>::parse_opt_value
FUNC m 45080 3b9 0 <clap::parser::parser::Parser>::split_arg_values
FUNC m 45440 624 0 <clap::parser::parser::Parser>::push_arg_values
FUNC m 45a80 1f1 0 <clap::parser::parser::Parser>::resolve_pending
FUNC m 45c80 1030 0 <clap::parser::parser::Parser>::react
FUNC m 46ce0 344 0 <clap::parser::parser::Parser>::remove_overrides
FUNC m 47030 1079 0 <clap::parser::parser::Parser>::add_defaults
FUNC m 480b0 195 0 <clap::parser::parser::Parser>::start_custom_arg
FUNC m 48250 16c 0 <clap::parser::parser::Parser>::start_occurrence_of_arg
FUNC m 483c0 1c 0 alloc::alloc::box_free::<dyn std::error::Error + core::marker::Send + core::marker::Sync, alloc::alloc::Global>
FUNC m 483e0 14 0 alloc::alloc::box_free::<clap::error::ErrorInner, alloc::alloc::Global>
FUNC m 48400 14 0 alloc::alloc::box_free::<clap::parser::matches::arg_matches::SubCommand, alloc::alloc::Global>
FUNC m 48420 1a 0 core::ptr::drop_in_place::<core::option::Option<alloc::sync::Arc<std::sync::mutex::Mutex<dyn for<'a> core::ops::function::FnMut<(&'a std::ffi::os_str::OsStr,), Output = core::result::Result<(), alloc::boxed::Box<dyn std::error::Error + core::marker::Send + core::marker::Sync>>> + core::marker::Send>>>>
FUNC m 48440 1a 0 core::ptr::drop_in_place::<core::option::Option<alloc::sync::Arc<std::sync::mutex::Mutex<dyn for<'a> core::ops::function::FnMut<(&'a str,), Output = core::result::Result<(), alloc::boxed::Box<dyn std::error::Error + core::marker::Send + core::marker::Sync>>> + core::marker::Send>>>>
FUNC m 48460 51 0 core::ptr::drop_in_place::<core::option::Option<alloc::boxed::Box<dyn std::error::Error + core::marker::Send + core::marker::Sync>>>
FUNC m 484c0 63 0 core::ptr::drop_in_place::<core::option::Option<alloc::boxed::Box<clap::parser::matches::arg_matches::SubCommand>>>
FUNC m 48530 25 0 core::ptr::drop_in_place::<core::option::Option<alloc::string::String>>
FUNC m 48560 a1 0 core::ptr::drop_in_place::<core::option::Option<clap::error::Message>>
FUNC m 48610 86 0 core::ptr::drop_in_place::<core::option::Option<clap::parser::parser::PendingArg>>
FUNC m 486a0 5d 0 core::ptr::drop_in_place::<core::option::Option<clap::builder::value_parser::ValueParser>>
FUNC m 48700 85 0 core::ptr::drop_in_place::<alloc::vec::Vec<alloc::string::String>>
FUNC m 48790 8d 0 core::ptr::drop_in_place::<alloc::vec::Vec<clap::mkeymap::Key>>
FUNC m 48820 98 0 core::ptr::drop_in_place::<alloc::vec::Vec<clap::builder::possible_value::PossibleValue>>
FUNC m 488c0 b6 0 core::ptr::drop_in_place::<alloc::vec::Vec<clap::builder::command::App>>
FUNC m 48980 d6 0 core::ptr::drop_in_place::<alloc::vec::Vec<clap::builder::arg_group::ArgGroup>>
FUNC m 48a60 28 0 core::ptr::drop_in_place::<alloc::vec::Vec<&std::ffi::os_str::OsStr>>
FUNC m 48a90 28 0 core::ptr::drop_in_place::<alloc::vec::Vec<&clap::builder::command::App>>
FUNC m 48ac0 28 0 core::ptr::drop_in_place::<alloc::vec::Vec<(clap::util::id::Id, clap::builder::arg_predicate::ArgPredicate, core::option::Option<&std::ffi::os_str::OsStr>)>>
FUNC m 48af0 28 0 core::ptr::drop_in_place::<alloc::vec::Vec<(clap::util::id::Id, &str)>>
FUNC m 48b20 28 0 core::ptr::drop_in_place::<alloc::vec::Vec<(char, bool)>>
FUNC m 48b50 24 0 core::ptr::drop_in_place::<alloc::borrow::Cow<str>>
FUNC m 48b80 28 0 core::ptr::drop_in_place::<alloc::raw_vec::RawVec<indexmap::Bucket<clap::util::id::Id, clap::parser::matches::matched_arg::MatchedArg>>>
FUNC m 48bb0 28 0 core::ptr::drop_in_place::<alloc::raw_vec::RawVec<clap::builder::arg::Arg>>
FUNC m 48be0 28 0 core::ptr::drop_in_place::<alloc::raw_vec::RawVec<clap::builder::command::App>>
FUNC m 48c10 28 0 core::ptr::drop_in_place::<alloc::raw_vec::RawVec<(clap::error::context::ContextKind, clap::error::context::ContextValue)>>
FUNC m 48c40 b7 0 core::ptr::drop_in_place::<indexmap::set::IndexSet<alloc::string::String>>
FUNC m 48d00 98 0 core::ptr::drop_in_place::<clap::util::graph::ChildGraph<clap::util::id::Id>>
FUNC m 48da0 36 0 core::ptr::drop_in_place::<std::collections::hash::map::HashMap<&str, &[&str]>>
FUNC m 48de0 6 0 core::ptr::drop_in_place::<core::fmt::Error>
FUNC m 48df0 1d 0 core::ptr::drop_in_place::<alloc::string::String>
FUNC m 48e10 1ed 0 core::ptr::drop_in_place::<clap::error::Error>
FUNC m 49000 137 0 core::ptr::drop_in_place::<clap::mkeymap::MKeyMap>
FUNC m 49140 85 0 core::ptr::drop_in_place::<clap::output::fmt::Colorizer>
FUNC m 491d0 b2 0 core::ptr::drop_in_place::<clap::parser::arg_matcher::ArgMatcher>
FUNC m 49290 42b 0 core::ptr::drop_in_place::<clap::builder::arg::Arg>
FUNC m 496c0 2f7 0 core::ptr::drop_in_place::<clap::builder::command::App>
FUNC m 499c0 7c 0 core::ptr::drop_in_place::<clap::builder::arg_group::ArgGroup>
FUNC m 49a40 151 0 core::ptr::drop_in_place::<clap::parser::matches::arg_matches::ArgMatches>
FUNC m 49ba0 15b 0 <&mut <clap::builder::command::App>::format_group::{closure#1} as core::ops::function::FnOnce<(&clap::builder::arg::Arg,)>>::call_once
FUNC m 49d00 10c 0 <alloc::string::String as core::fmt::Write>::write_char
FUNC m 49e10 5e 0 <alloc::string::String as core::fmt::Write>::write_str
FUNC m 49e70 17 0 <alloc::string::String as core::fmt::Display>::fmt
FUNC m 49e90 202 0 <core::str::pattern::CharSearcher as core::str::pattern::Searcher>::next_match
FUNC m 4a0a0 75b 0 <clap::builder::command::App>::new::new_inner
FUNC m 4a800 2a6 0 <clap::builder::command::App>::arg::<clap::builder::arg::Arg>
FUNC m 4aab0 78 0 <clap::builder::command::App>::get_color
FUNC m 4ab30 41 0 <clap::builder::command::App>::is_disable_help_subcommand_set
FUNC m 4ab80 41 0 <clap::builder::command::App>::is_infer_subcommands_set
FUNC m 4abd0 142 0 <clap::builder::command::App>::get_replacement
FUNC m 4ad20 547 0 <clap::builder::command::App>::_do_parse
FUNC m 4b270 2482 0 <clap::builder::command::App>::_build_self
FUNC m 4d700 a02 0 <clap::builder::command::App>::_build_subcommand
FUNC m 4e110 1bd 0 <clap::builder::command::App>::_derive_display_order
FUNC m 4e2d0 3f4 0 <clap::builder::command::App>::_render_version
FUNC m 4e6d0 1de 0 <clap::builder::command::App>::format_group
FUNC m 4e8b0 3b5 0 <clap::builder::command::App>::required_graph
FUNC m 4ec70 290 0 <clap::builder::command::App>::unroll_args_in_group
FUNC m 4ef00 322 0 <clap::builder::command::App>::unroll_arg_requires::<<clap::output::usage::Usage>::get_required_usage_from::{closure#0}>
FUNC m 4f230 2d4 0 <clap::builder::command::App>::unroll_arg_requires::<<clap::parser::validator::Validator>::gather_requires::{closure#1}>
FUNC m 4f510 149 0 <clap::builder::command::App>::find_long_subcmd
FUNC m 4f660 2dc 0 <clap::builder::command::App>::write_help_err
FUNC m 4f940 44c 0 <clap::builder::command::App as core::default::Default>::default
FUNC m 4fd90 b63 0 alloc::slice::merge_sort::<(f64, alloc::string::String), <[(f64, alloc::string::String)]>::sort_by<clap::parser::features::suggestions::did_you_mean<&str, core::iter::adapters::flatten::FlatMap<core::slice::iter::Iter<clap::builder::command::App>, core::iter::adapters::chain::Chain<core::iter::sources::once::Once<&str>, core::iter::adapters::map::Map<core::slice::iter::Iter<(&str, bool)>, <clap::builder::command::App>::get_all_aliases::{closure#0}>>, <clap::builder::command::App>::all_subcommand_names::{closure#0}>>::{closure#2}>::{closure#0}>
FUNC m 50900 dc9 0 alloc::slice::merge_sort::<(usize, alloc::string::String, &clap::builder::arg::Arg), <[(usize, alloc::string::String, &clap::builder::arg::Arg)]>::sort_by<<clap::output::help::Help>::write_args::{closure#1}>::{closure#0}>
FUNC m 516d0 dc9 0 alloc::slice::merge_sort::<(usize, alloc::string::String, &clap::builder::command::App), <[(usize, alloc::string::String, &clap::builder::command::App)]>::sort_by<<clap::output::help::Help>::write_subcommands::{closure#1}>::{closure#0}>
FUNC m 524a0 8b8 0 alloc::slice::merge_sort::<(usize, &clap::builder::arg::Arg), <[(usize, &clap::builder::arg::Arg)]>::sort_by_key<usize, <clap::output::usage::Usage>::get_required_usage_from::{closure#15}>::{closure#0}>
FUNC m 52d60 28 0 core::ptr::drop_in_place::<alloc::vec::Vec<alloc::slice::merge_sort::Run>>
FUNC m 52d90 86 0 core::ptr::drop_in_place::<alloc::vec::Vec<(f64, alloc::string::String)>>
FUNC m 52e20 86 0 core::ptr::drop_in_place::<alloc::vec::Vec<(usize, alloc::string::String, &clap::builder::arg::Arg)>>
FUNC m 52eb0 63 0 <[u8] as alloc::borrow::ToOwned>::to_owned
FUNC m 52f20 bda 0 textwrap::fill::<&textwrap::Options>
FUNC m 53b00 1c 0 alloc::alloc::box_free::<dyn clap::builder::value_parser::AnyValueParser, alloc::alloc::Global>
FUNC m 53b20 1a 0 core::ptr::drop_in_place::<core::option::Option<alloc::sync::Arc<std::sync::mutex::Mutex<dyn for<'a> core::ops::function::FnMut<(&'a std::ffi::os_str::OsStr,), Output = core::result::Result<(), alloc::boxed::Box<dyn std::error::Error + core::marker::Send + core::marker::Sync>>> + core::marker::Send>>>>
FUNC m 53b40 1a 0 core::ptr::drop_in_place::<core::option::Option<alloc::sync::Arc<std::sync::mutex::Mutex<dyn for<'a> core::ops::function::FnMut<(&'a str,), Output = core::result::Result<(), alloc::boxed::Box<dyn std::error::Error + core::marker::Send + core::marker::Sync>>> + core::marker::Send>>>>
FUNC m 53b60 8d 0 core::ptr::drop_in_place::<alloc::vec::Vec<alloc::borrow::Cow<str>>>
FUNC m 53bf0 28 0 core::ptr::drop_in_place::<alloc::vec::Vec<textwrap::core::Word>>
FUNC m 53c20 28 0 core::ptr::drop_in_place::<alloc::vec::Vec<clap::util::id::Id>>
FUNC m 53c50 98 0 core::ptr::drop_in_place::<alloc::vec::Vec<clap::builder::possible_value::PossibleValue>>
FUNC m 53cf0 28 0 core::ptr::drop_in_place::<alloc::vec::Vec<&std::ffi::os_str::OsStr>>
FUNC m 53d20 28 0 core::ptr::drop_in_place::<alloc::vec::Vec<(clap::util::id::Id, clap::builder::arg_predicate::ArgPredicate, core::option::Option<&std::ffi::os_str::OsStr>)>>
FUNC m 53d50 28 0 core::ptr::drop_in_place::<alloc::vec::Vec<(clap::util::id::Id, &str)>>
FUNC m 53d80 28 0 core::ptr::drop_in_place::<alloc::vec::Vec<(char, bool)>>
FUNC m 53db0 24 0 core::ptr::drop_in_place::<alloc::borrow::Cow<str>>
FUNC m 53de0 28 0 core::ptr::drop_in_place::<alloc::vec::into_iter::IntoIter<&[textwrap::core::Word]>>
FUNC m 53e10 1d 0 core::ptr::drop_in_place::<alloc::string::String>
FUNC m 53e30 23 0 core::ptr::drop_in_place::<clap::mkeymap::Key>
FUNC m 53e60 42b 0 core::ptr::drop_in_place::<clap::builder::arg::Arg>
FUNC m 54290 8a 0 <alloc::borrow::Cow<str>>::into_owned
FUNC m 54320 149 0 <&mut core::iter::adapters::filter::filter_try_fold<&clap::util::id::Id, (), core::ops::control_flow::ControlFlow<&clap::builder::arg::Arg>, <clap::output::usage::Usage>::get_required_usage_from::{closure#9}, core::iter::adapters::filter::filter_try_fold<&clap::util::id::Id, (), core::ops::control_flow::ControlFlow<&clap::builder::arg::Arg>, <clap::output::usage::Usage>::get_required_usage_from::{closure#10}, core::iter::adapters::filter_map::filter_map_try_fold<&clap::util::id::Id, &clap::builder::arg::Arg, (), core::ops::control_flow::ControlFlow<&clap::builder::arg::Arg>, <clap::output::usage::Usage>::get_required_usage_from::{closure#11}, core::iter::adapters::filter::filter_try_fold<&clap::builder::arg::Arg, (), core::ops::control_flow::ControlFlow<&clap::builder::arg::Arg>, <clap::output::usage::Usage>::get_required_usage_from::{closure#12}, core::iter::traits::iterator::Iterator::find::check<&clap::builder::arg::Arg, &mut <clap::output::usage::Usage>::get_required_usage_from::{closure#13}>::{closure#0}>::{closure#0}>::{closure#0}>::{closure#0}>::{closure#0} as core::ops::function::FnMut<((), &clap::util::id::Id)>>::call_mut
FUNC m 54470 109 0 <core::array::iter::IntoIter<(clap::error::context::ContextKind, clap::error::context::ContextValue), 1> as core::ops::drop::Drop>::drop
FUNC m 54580 109 0 <core::array::iter::IntoIter<(clap::error::context::ContextKind, clap::error::context::ContextValue), 2> as core::ops::drop::Drop>::drop
FUNC m 54690 109 0 <core::array::iter::IntoIter<(clap::error::context::ContextKind, clap::error::context::ContextValue), 3> as core::ops::drop::Drop>::drop
FUNC m 547a0 119 0 <core::array::iter::IntoIter<(clap::error::context::ContextKind, clap::error::context::ContextValue), 4> as core::ops::drop::Drop>::drop
FUNC m 548c0 1c 0 <alloc::borrow::Cow<str> as core::fmt::Debug>::fmt
FUNC m 548e0 1c 0 <alloc::borrow::Cow<str> as core::fmt::Display>::fmt
FUNC m 54900 30 0 <std::sync::poison::PoisonError<std::sync::mutex::MutexGuard<dyn for<'a> core::ops::function::FnMut<(&'a str,), Output = core::result::Result<(), alloc::boxed::Box<dyn std::error::Error + core::marker::Send + core::marker::Sync>>> + core::marker::Send>> as core::fmt::Debug>::fmt
FUNC m 54930 11 0 <clap::builder::action::ArgAction>::takes_values
FUNC m 54950 7c 0 <clap::mkeymap::MKeyMap>::push
FUNC m 549d0 3ce 0 <clap::mkeymap::MKeyMap>::_build
FUNC m 54da0 1b3 0 <str>::replace::<&str>
FUNC m 54f60 1ea 0 <core::str::pattern::TwoWaySearcher>::next::<core::str::pattern::MatchOnly>
FUNC m 55150 8d 0 core::ptr::drop_in_place::<alloc::vec::Vec<alloc::borrow::Cow<str>>>
FUNC m 551e0 85 0 core::ptr::drop_in_place::<alloc::vec::Vec<alloc::string::String>>
FUNC m 55270 98 0 core::ptr::drop_in_place::<alloc::vec::Vec<clap::builder::possible_value::PossibleValue>>
FUNC m 55310 28 0 core::ptr::drop_in_place::<alloc::vec::Vec<&clap::builder::arg::Arg>>
FUNC m 55340 28 0 core::ptr::drop_in_place::<alloc::vec::Vec<&str>>
FUNC m 55370 86 0 core::ptr::drop_in_place::<alloc::vec::Vec<(usize, alloc::string::String, &clap::builder::arg::Arg)>>
FUNC m 55400 6a 0 core::ptr::drop_in_place::<indexmap::set::IndexSet<&str>>
FUNC m 55470 28 0 core::ptr::drop_in_place::<indexmap::set::IntoIter<&str>>
FUNC m 554a0 6 0 core::ptr::drop_in_place::<core::fmt::Error>
FUNC m 554b0 1d 0 core::ptr::drop_in_place::<alloc::string::String>
FUNC m 554d0 1e 0 core::ptr::drop_in_place::<(usize, alloc::string::String, &clap::builder::arg::Arg)>
FUNC m 554f0 2e 0 <str as core::ops::index::Index<core::ops::range::RangeFrom<usize>>>::index
FUNC m 55520 f5 0 <&mut <clap::output::help::Help>::spec_vals::{closure#5} as core::ops::function::FnOnce<(&(char, bool),)>>::call_once
FUNC m 55620 10c 0 <alloc::string::String as core::fmt::Write>::write_char
FUNC m 55730 5e 0 <alloc::string::String as core::fmt::Write>::write_str
FUNC m 55790 17 0 <alloc::string::String as core::fmt::Display>::fmt
FUNC m 557b0 1ab 0 <core::str::pattern::StrSearcher as core::str::pattern::Searcher>::next_match
FUNC m 55960 202 0 <core::str::pattern::CharSearcher as core::str::pattern::Searcher>::next_match
FUNC m 55b70 3a5 0 <clap::output::help::Help>::write_help
FUNC m 55f20 91 0 <clap::output::help::Help>::good::<alloc::string::String>
FUNC m 55fc0 5a 0 <clap::output::help::Help>::good::<&alloc::string::String>
FUNC m 56020 a4 0 <clap::output::help::Help>::good::<&str>
FUNC m 560d0 91 0 <clap::output::help::Help>::warning::<alloc::string::String>
FUNC m 56170 a4 0 <clap::output::help::Help>::warning::<&str>
FUNC m 56220 91 0 <clap::output::help::Help>::none::<alloc::string::String>
FUNC m 562c0 a4 0 <clap::output::help::Help>::none::<&str>
FUNC m 56370 71 0 <clap::output::help::Help>::spaces
FUNC m 563f0 72d 0 <clap::output::help::Help>::write_args
FUNC m 56b20 5cd 0 <clap::output::help::Help>::write_arg
FUNC m 570f0 fb 0 <clap::output::help::Help>::write_before_help
FUNC m 571f0 117 0 <clap::output::help::Help>::write_after_help
FUNC m 57310 722 0 <clap::output::help::Help>::help
FUNC m 57a40 3b9 0 <clap::output::help::Help>::will_args_wrap
FUNC m 57e00 a0e 0 <clap::output::help::Help>::spec_vals
FUNC m 58810 c1 0 <clap::output::help::Help>::write_about
FUNC m 588e0 2fb 0 <clap::output::help::Help>::sc_spec_vals
FUNC m 58be0 a89 0 <clap::output::help::Help>::write_all_args
FUNC m 59670 85e 0 <clap::output::help::Help>::write_subcommands
FUNC m 59ed0 f3e 0 <clap::output::help::Help>::write_templated_help
FUNC m 5ae10 175 0 clap::output::help::text_wrapper
FUNC m 5af90 174 0 <hashbrown::raw::RawTable<(clap::util::id::Id, clap::parser::matches::matched_arg::MatchedArg)>>::insert::<hashbrown::map::make_hasher<clap::util::id::Id, clap::util::id::Id, clap::parser::matches::matched_arg::MatchedArg, std::collections::hash::map::RandomState>::{closure#0}>
FUNC m 5b110 162 0 <hashbrown::raw::RawTable<(clap::util::id::Id, ())>>::insert::<hashbrown::map::make_hasher<clap::util::id::Id, clap::util::id::Id, (), std::collections::hash::map::RandomState>::{closure#0}>
FUNC m 5b280 1c 0 alloc::alloc::box_free::<dyn std::error::Error + core::marker::Send + core::marker::Sync, alloc::alloc::Global>
FUNC m 5b2a0 44 0 core::ptr::drop_in_place::<hashbrown::scopeguard::ScopeGuard<hashbrown::raw::RawTableInner<alloc::alloc::Global>, <hashbrown::raw::RawTableInner<alloc::alloc::Global>>::prepare_resize::{closure#0}>>
FUNC m 5b2f0 b9 0 core::ptr::drop_in_place::<hashbrown::scopeguard::ScopeGuard<&mut hashbrown::raw::RawTableInner<alloc::alloc::Global>, <hashbrown::raw::RawTableInner<alloc::alloc::Global>>::rehash_in_place::{closure#0}>>
FUNC m 5b3b0 10d 0 core::ptr::drop_in_place::<alloc::vec::Vec<alloc::vec::Vec<std::ffi::os_str::OsString>>>
FUNC m 5b4c0 85 0 core::ptr::drop_in_place::<alloc::vec::Vec<alloc::string::String>>
FUNC m 5b550 28 0 core::ptr::drop_in_place::<alloc::vec::Vec<clap::util::id::Id>>
FUNC m 5b580 98 0 core::ptr::drop_in_place::<alloc::vec::Vec<clap::builder::possible_value::PossibleValue>>
FUNC m 5b620 28 0 core::ptr::drop_in_place::<alloc::vec::Vec<&str>>
FUNC m 5b650 4c 0 core::ptr::drop_in_place::<alloc::boxed::Box<dyn std::error::Error + core::marker::Send + core::marker::Sync>>
FUNC m 5b6a0 24 0 core::ptr::drop_in_place::<alloc::borrow::Cow<str>>
FUNC m 5b6d0 28 0 core::ptr::drop_in_place::<alloc::raw_vec::RawVec<alloc::vec::Vec<std::ffi::os_str::OsString>>>
FUNC m 5b700 28 0 core::ptr::drop_in_place::<alloc::vec::into_iter::IntoIter<clap::util::id::Id>>
FUNC m 5b730 59 0 core::ptr::drop_in_place::<std::sync::mutex::MutexGuard<dyn for<'a> core::ops::function::FnMut<(&'a std::ffi::os_str::OsStr,), Output = core::result::Result<(), alloc::boxed::Box<dyn std::error::Error + core::marker::Send + core::marker::Sync>>> + core::marker::Send>>
FUNC m 5b790 5a 0 core::ptr::drop_in_place::<std::sync::poison::PoisonError<std::sync::mutex::MutexGuard<dyn for<'a> core::ops::function::FnMut<(&'a std::ffi::os_str::OsStr,), Output = core::result::Result<(), alloc::boxed::Box<dyn std::error::Error + core::marker::Send + core::marker::Sync>>> + core::marker::Send>>>
FUNC m 5b7f0 3e 0 core::ptr::drop_in_place::<std::collections::hash::set::HashSet<clap::util::id::Id>>
FUNC m 5b830 11 0 core::ptr::drop_in_place::<<_ as alloc::slice::hack::ConvertVec>::to_vec::DropGuard<clap::builder::possible_value::PossibleValue, alloc::alloc::Global>>
FUNC m 5b850 6 0 core::ptr::drop_in_place::<core::fmt::Error>
FUNC m 5b860 1d 0 core::ptr::drop_in_place::<alloc::string::String>
FUNC m 5b880 127 0 core::ptr::drop_in_place::<clap::parser::validator::Conflicts>
FUNC m 5b9b0 29 0 core::ptr::drop_in_place::<(clap::util::id::Id, alloc::vec::Vec<clap::util::id::Id>)>
FUNC m 5b9e0 1d1 0 core::ptr::drop_in_place::<(clap::util::id::Id, clap::parser::matches::matched_arg::MatchedArg)>
FUNC m 5bbc0 10 0 <std::path::PathBuf as core::any::Any>::type_id
FUNC m 5bbd0 10 0 <bool as core::any::Any>::type_id
FUNC m 5bbe0 10 0 <u8 as core::any::Any>::type_id
FUNC m 5bbf0 1f2 0 <&mut <clap::parser::validator::Validator>::build_conflict_err::{closure#1} as core::ops::function::FnMut<(clap::util::id::Id,)>>::call_mut
FUNC m 5bdf0 d3 0 <os_str_bytes::iter::Split<char> as core::iter::traits::iterator::Iterator>::next
FUNC m 5bed0 2ce 0 <core::iter::adapters::cloned::Cloned<core::iter::adapters::chain::Chain<core::iter::adapters::filter::Filter<core::iter::adapters::flatten::FlatMap<core::iter::adapters::filter_map::FilterMap<core::slice::iter::Iter<clap::util::id::Id>, <clap::parser::validator::Validator>::build_conflict_err_usage::{closure#3}>, core::iter::adapters::map::Map<core::slice::iter::Iter<(clap::builder::arg_predicate::ArgPredicate, clap::util::id::Id)>, <clap::parser::validator::Validator>::build_conflict_err_usage::{closure#4}::{closure#0}>, <clap::parser::validator::Validator>::build_conflict_err_usage::{closure#4}>, <clap::parser::validator::Validator>::build_conflict_err_usage::{closure#5}>, core::slice::iter::Iter<clap::util::id::Id>>> as core::iter::traits::iterator::Iterator>::next
FUNC m 5c1a0 131 0 <core::iter::adapters::cloned::Cloned<core::iter::adapters::chain::Chain<core::iter::adapters::filter::Filter<core::iter::adapters::flatten::FlatMap<core::iter::adapters::filter_map::FilterMap<core::slice::iter::Iter<clap::util::id::Id>, <clap::parser::validator::Validator>::build_conflict_err_usage::{closure#3}>, core::iter::adapters::map::Map<core::slice::iter::Iter<(clap::builder::arg_predicate::ArgPredicate, clap::util::id::Id)>, <clap::parser::validator::Validator>::build_conflict_err_usage::{closure#4}::{closure#0}>, <clap::parser::validator::Validator>::build_conflict_err_usage::{closure#4}>, <clap::parser::validator::Validator>::build_conflict_err_usage::{closure#5}>, core::slice::iter::Iter<clap::util::id::Id>>> as core::iter::traits::iterator::Iterator>::size_hint
FUNC m 5c2e0 100 0 <hashbrown::raw::RawTable<(&str, &[&str])> as core::clone::Clone>::clone
FUNC m 5c3e0 10c 0 <alloc::string::String as core::fmt::Write>::write_char
FUNC m 5c4f0 5e 0 <alloc::string::String as core::fmt::Write>::write_str
FUNC m 5c550 29 0 alloc::alloc::exchange_malloc
FUNC m 5c580 e3 0 <clap::builder::arg_group::ArgGroup as core::clone::Clone>::clone
FUNC m 5c670 3bbd 0 <clap::parser::validator::Validator>::validate
FUNC m 60230 23d 0 <clap::parser::validator::Validator>::missing_required_error
FUNC m 60470 15c 0 <clap::parser::validator::Conflicts>::gather_conflicts
FUNC m 605d0 6f0 0 <clap::parser::validator::Conflicts>::gather_direct_conflicts
FUNC m 60cc0 376 0 clap::parser::validator::get_possible_values
FUNC m 61050 1f6 0 <str>::trim_matches::<<str>::trim::{closure#0}>
FUNC m 61250 14f 0 <indexmap::map::IndexMap<clap::util::id::Id, clap::parser::matches::matched_arg::MatchedArg>>::hash::<clap::util::id::Id>
FUNC m 613a0 1c 0 alloc::alloc::box_free::<dyn std::error::Error + core::marker::Send + core::marker::Sync, alloc::alloc::Global>
FUNC m 613c0 14 0 alloc::alloc::box_free::<std::io::error::Custom, alloc::alloc::Global>
FUNC m 613e0 14 0 alloc::alloc::box_free::<clap::parser::matches::arg_matches::SubCommand, alloc::alloc::Global>
FUNC m 61400 25 0 core::ptr::drop_in_place::<core::option::Option<alloc::vec::Vec<u8>>>
FUNC m 61430 63 0 core::ptr::drop_in_place::<core::option::Option<alloc::boxed::Box<clap::parser::matches::arg_matches::SubCommand>>>
FUNC m 614a0 86 0 core::ptr::drop_in_place::<core::option::Option<clap::parser::parser::PendingArg>>
FUNC m 61530 95 0 core::ptr::drop_in_place::<core::result::Result<(), std::io::error::Error>>
FUNC m 615d0 10d 0 core::ptr::drop_in_place::<alloc::vec::Vec<alloc::vec::Vec<std::ffi::os_str::OsString>>>
FUNC m 616e0 b0 0 core::ptr::drop_in_place::<alloc::vec::Vec<alloc::vec::Vec<clap::parser::matches::any_value::AnyValue>>>
FUNC m 61790 85 0 core::ptr::drop_in_place::<alloc::vec::Vec<std::ffi::os_str::OsString>>
FUNC m 61820 cf 0 core::ptr::drop_in_place::<alloc::vec::Vec<clap::parser::matches::any_value::AnyValue>>
FUNC m 618f0 1d 0 core::ptr::drop_in_place::<alloc::vec::Vec<u8>>
FUNC m 61910 28 0 core::ptr::drop_in_place::<alloc::vec::Vec<usize>>
FUNC m 61940 24 0 core::ptr::drop_in_place::<alloc::borrow::Cow<str>>
FUNC m 61970 28 0 core::ptr::drop_in_place::<alloc::raw_vec::RawVec<indexmap::Bucket<clap::util::id::Id, clap::parser::matches::matched_arg::MatchedArg>>>
FUNC m 619a0 28 0 core::ptr::drop_in_place::<alloc::raw_vec::RawVec<indexmap::Bucket<&str, ()>>>
FUNC m 619d0 6a 0 core::ptr::drop_in_place::<indexmap::map::IndexMap<&str, ()>>
FUNC m 61a40 95 0 core::ptr::drop_in_place::<core::iter::adapters::map::Map<alloc::vec::into_iter::IntoIter<alloc::string::String>, <indexmap::set::IndexSet<alloc::string::String> as core::iter::traits::collect::Extend<alloc::string::String>>::extend<alloc::vec::Vec<alloc::string::String>>::{closure#0}>>
FUNC m 61ae0 111 0 core::ptr::drop_in_place::<std::collections::hash::map::HashMap<clap::util::id::Id, clap::parser::matches::matched_arg::MatchedArg>>
FUNC m 61c00 86 0 core::ptr::drop_in_place::<termcolor::BufferWriter>
FUNC m 61c90 1e 0 core::ptr::drop_in_place::<termcolor::Buffer>
FUNC m 61cb0 6 0 core::ptr::drop_in_place::<core::num::error::ParseIntError>
FUNC m 61cc0 26 0 core::ptr::drop_in_place::<std::io::stdio::StderrLock>
FUNC m 61cf0 26 0 core::ptr::drop_in_place::<std::io::stdio::StdoutLock>
FUNC m 61d20 1d 0 core::ptr::drop_in_place::<std::ffi::os_str::OsString>
FUNC m 61d40 b2 0 core::ptr::drop_in_place::<clap::parser::arg_matcher::ArgMatcher>
FUNC m 61e00 151 0 core::ptr::drop_in_place::<clap::parser::matches::arg_matches::ArgMatches>
FUNC m 61f60 32 0 core::ptr::drop_in_place::<clap::parser::matches::arg_matches::SubCommand>
FUNC m 61fa0 1d1 0 core::ptr::drop_in_place::<clap::parser::matches::matched_arg::MatchedArg>
FUNC m 62180 15 0 core::ptr::drop_in_place::<clap::parser::matches::any_value::AnyValue>
FUNC m 621a0 d5 0 <indexmap::map::IndexMap<alloc::string::String, ()> as core::iter::traits::collect::Extend<(alloc::string::String, ())>>::extend::<core::iter::adapters::map::Map<alloc::vec::into_iter::IntoIter<alloc::string::String>, <indexmap::set::IndexSet<alloc::string::String> as core::iter::traits::collect::Extend<alloc::string::String>>::extend<alloc::vec::Vec<alloc::string::String>>::{closure#0}>>
FUNC m 62280 fb 0 <indexmap::map::IndexMap<&str, ()> as core::iter::traits::collect::FromIterator<(&str, ())>>::from_iter::<core::iter::adapters::map::Map<core::iter::adapters::filter_map::FilterMap<core::slice::iter::Iter<clap::builder::arg::Arg>, <clap::output::help::Help>::write_all_args::{closure#2}>, <indexmap::set::IndexSet<&str> as core::iter::traits::collect::FromIterator<&str>>::from_iter<core::iter::adapters::filter_map::FilterMap<core::slice::iter::Iter<clap::builder::arg::Arg>, <clap::output::help::Help>::write_all_args::{closure#2}>>::{closure#0}>>
FUNC m 62380 30f 0 <core::iter::adapters::chain::Chain<indexmap::set::Iter<clap::util::id::Id>, core::slice::iter::Iter<clap::util::id::Id>> as core::iter::traits::iterator::Iterator>::try_fold::<(), core::iter::adapters::filter::filter_try_fold<&clap::util::id::Id, (), core::ops::control_flow::ControlFlow<&clap::util::id::Id>, <clap::output::usage::Usage>::get_required_usage_from::{closure#3}, core::iter::adapters::filter::filter_try_fold<&clap::util::id::Id, (), core::ops::control_flow::ControlFlow<&clap::util::id::Id>, <clap::output::usage::Usage>::get_required_usage_from::{closure#4}, core::iter::adapters::filter::filter_try_fold<&clap::util::id::Id, (), core::ops::control_flow::ControlFlow<&clap::util::id::Id>, <clap::output::usage::Usage>::get_required_usage_from::{closure#5}, core::iter::traits::iterator::Iterator::find::check<&clap::util::id::Id, &mut <clap::output::usage::Usage>::get_required_usage_from::{closure#6}>::{closure#0}>::{closure#0}>::{closure#0}>::{closure#0}, core::ops::control_flow::ControlFlow<&clap::util::id::Id>>
FUNC m 62690 2fa 0 <core::iter::adapters::chain::Chain<indexmap::set::Iter<clap::util::id::Id>, core::slice::iter::Iter<clap::util::id::Id>> as core::iter::traits::iterator::Iterator>::try_fold::<(), core::iter::adapters::filter::filter_try_fold<&clap::util::id::Id, (), core::ops::control_flow::ControlFlow<&clap::builder::arg::Arg>, <clap::output::usage::Usage>::get_required_usage_from::{closure#9}, core::iter::adapters::filter::filter_try_fold<&clap::util::id::Id, (), core::ops::control_flow::ControlFlow<&clap::builder::arg::Arg>, <clap::output::usage::Usage>::get_required_usage_from::{closure#10}, core::iter::adapters::filter_map::filter_map_try_fold<&clap::util::id::Id, &clap::builder::arg::Arg, (), core::ops::control_flow::ControlFlow<&clap::builder::arg::Arg>, <clap::output::usage::Usage>::get_required_usage_from::{closure#11}, core::iter::adapters::filter::filter_try_fold<&clap::builder::arg::Arg, (), core::ops::control_flow::ControlFlow<&clap::builder::arg::Arg>, <clap::output::usage::Usage>::get_required_usage_from::{closure#12}, core::iter::traits::iterator::Iterator::find::check<&clap::builder::arg::Arg, &mut <clap::output::usage::Usage>::get_required_usage_from::{closure#13}>::{closure#0}>::{closure#0}>::{closure#0}>::{closure#0}>::{closure#0}, core::ops::control_flow::ControlFlow<&clap::builder::arg::Arg>>
FUNC m 62990 1d7 0 <core::iter::adapters::chain::Chain<core::iter::sources::once::Once<&&str>, core::slice::iter::Iter<&str>> as core::iter::traits::iterator::Iterator>::try_fold::<(), core::iter::adapters::copied::copy_try_fold<&str, (), core::ops::control_flow::ControlFlow<()>, core::iter::traits::iterator::Iterator::any::check<&str, <clap::builder::possible_value::PossibleValue>::matches::{closure#0}>::{closure#0}>::{closure#0}, core::ops::control_flow::ControlFlow<()>>
FUNC m 62b70 1f5 0 <core::iter::adapters::chain::Chain<core::iter::sources::once::Once<&str>, core::iter::adapters::map::Map<core::slice::iter::Iter<(&str, bool)>, <clap::builder::command::App>::get_all_aliases::{closure#0}>> as core::iter::traits::iterator::Iterator>::try_fold::<(), &mut core::iter::adapters::map::map_try_fold<&str, (f64, alloc::string::String), (), core::ops::control_flow::ControlFlow<(f64, alloc::string::String)>, clap::parser::features::suggestions::did_you_mean<&str, core::iter::adapters::flatten::FlatMap<core::slice::iter::Iter<clap::builder::command::App>, core::iter::adapters::chain::Chain<core::iter::sources::once::Once<&str>, core::iter::adapters::map::Map<core::slice::iter::Iter<(&str, bool)>, <clap::builder::command::App>::get_all_aliases::{closure#0}>>, <clap::builder::command::App>::all_subcommand_names::{closure#0}>>::{closure#0}, core::iter::traits::iterator::Iterator::find::check<(f64, alloc::string::String), &mut clap::parser::features::suggestions::did_you_mean<&str, core::iter::adapters::flatten::FlatMap<core::slice::iter::Iter<clap::builder::command::App>, core::iter::adapters::chain::Chain<core::iter::sources::once::Once<&str>, core::iter::adapters::map::Map<core::slice::iter::Iter<(&str, bool)>, <clap::builder::command::App>::get_all_aliases::{closure#0}>>, <clap::builder::command::App>::all_subcommand_names::{closure#0}>>::{closure#1}>::{closure#0}>::{closure#0}, core::ops::control_flow::ControlFlow<(f64, alloc::string::String)>>
FUNC m 62d70 263 0 <core::slice::iter::Iter<std::ffi::os_str::OsString> as core::iter::traits::iterator::Iterator>::try_fold::<(), &mut core::iter::traits::iterator::Iterator::any::check<&std::ffi::os_str::OsString, <clap::parser::matches::matched_arg::MatchedArg>::check_explicit::{closure#0}>::{closure#0}, core::ops::control_flow::ControlFlow<()>>
FUNC m 62fe0 19c 0 <indexmap::map::IndexMap<alloc::string::String, ()>>::insert
FUNC m 63180 16a 0 <indexmap::map::IndexMap<clap::util::id::Id, ()>>::insert
FUNC m 632f0 183 0 <indexmap::map::IndexMap<&str, ()>>::insert
FUNC m 63480 1ed 0 <core::hash::sip::Hasher<core::hash::sip::Sip13Rounds> as core::hash::Hasher>::write
FUNC m 63670 5a 0 <&clap::util::id::Id as core::fmt::Debug>::fmt
FUNC m 636d0 17 0 <&str as core::fmt::Debug>::fmt
FUNC m 636f0 17 0 <&&str as core::fmt::Display>::fmt
FUNC m 63710 17 0 <&str as core::fmt::Display>::fmt
FUNC m 63730 37 0 std::collections::hash::map::RandomState::new::KEYS::__getit
FUNC m 63770 176 0 <clap::parser::arg_matcher::ArgMatcher>::propagate_globals
FUNC m 638f0 98f 0 <clap::parser::arg_matcher::ArgMatcher>::fill_in_global_values
FUNC m 64280 ea 0 <clap::parser::arg_matcher::ArgMatcher>::get_mut
FUNC m 64370 eb 0 <clap::parser::arg_matcher::ArgMatcher>::contains
FUNC m 64460 d9 0 <clap::parser::arg_matcher::ArgMatcher>::subcommand
FUNC m 64540 169 0 <clap::parser::arg_matcher::ArgMatcher>::check_explicit
FUNC m 646b0 2b5 0 <clap::parser::arg_matcher::ArgMatcher>::start_custom_arg
FUNC m 64980 299 0 <clap::parser::arg_matcher::ArgMatcher>::start_occurrence_of_arg
FUNC m 64c30 2d6 0 <clap::parser::arg_matcher::ArgMatcher>::start_occurrence_of_external
FUNC m 64f20 2c1 0 <clap::parser::arg_matcher::ArgMatcher>::add_val_to
FUNC m 651f0 122 0 <clap::parser::arg_matcher::ArgMatcher>::add_index_to
FUNC m 65320 1e0 0 <clap::parser::arg_matcher::ArgMatcher>::needs_more_vals
FUNC m 65500 3b 0 <clap::parser::matches::matched_arg::MatchedArg>::first
FUNC m 65540 e9 0 <clap::parser::matches::matched_arg::MatchedArg>::new_val_group
FUNC m 65630 67 0 <clap::parser::matches::matched_arg::MatchedArg>::infer_type_id
FUNC m 656a0 27 0 <clap::output::fmt::Colorizer>::new
FUNC m 656d0 86 0 <clap::output::fmt::Colorizer>::good::<alloc::string::String>
FUNC m 65760 78 0 <clap::output::fmt::Colorizer>::good::<&alloc::string::String>
FUNC m 657e0 c8 0 <clap::output::fmt::Colorizer>::good::<&str>
FUNC m 658b0 86 0 <clap::output::fmt::Colorizer>::warning::<alloc::string::String>
FUNC m 65940 78 0 <clap::output::fmt::Colorizer>::warning::<&alloc::string::String>
FUNC m 659c0 c8 0 <clap::output::fmt::Colorizer>::warning::<&str>
FUNC m 65a90 c8 0 <clap::output::fmt::Colorizer>::error::<&str>
FUNC m 65b60 86 0 <clap::output::fmt::Colorizer>::none::<alloc::string::String>
FUNC m 65bf0 78 0 <clap::output::fmt::Colorizer>::none::<&alloc::string::String>
FUNC m 65c70 c8 0 <clap::output::fmt::Colorizer>::none::<&str>
FUNC m 65d40 382 0 <clap::output::fmt::Colorizer>::print
FUNC m 660e0 b 0 <clap::util::fnv::FnvHasher>::new
FUNC m 660f0 9 0 <clap::util::fnv::FnvHasher as core::hash::Hasher>::finish
FUNC m 66100 c5 0 <clap::util::fnv::FnvHasher as core::hash::Hasher>::write
FUNC m 661d0 57 0 <clap::util::id::Id as core::fmt::Debug>::fmt
FUNC m 66230 f 0 <clap::util::id::Id as core::cmp::PartialEq>::eq
FUNC m 66240 b0 0 clap::util::safe_exit
FUNC m 662f0 1e 0 atty::is
FUNC m 66310 1d 0 core::ptr::drop_in_place::<alloc::vec::Vec<bool>>
FUNC m 66330 4bf 0 strsim::generic_jaro::<strsim::StringWrapper, strsim::StringWrapper, char, char>
FUNC m 667f0 1fc 0 strsim::jaro_winkler
FUNC m 669f0 8b 0 alloc::raw_vec::finish_grow::<alloc::alloc::Global>
FUNC m 66a80 93 0 <alloc::raw_vec::RawVec<bool>>::reserve_for_push
FUNC m 66b20 1db 0 <core::str::iter::Chars as core::iter::traits::iterator::Iterator>::eq::<core::str::iter::Chars>
FUNC m 66d00 1c 0 alloc::alloc::box_free::<dyn std::error::Error + core::marker::Send + core::marker::Sync, alloc::alloc::Global>
FUNC m 66d20 14 0 alloc::alloc::box_free::<std::io::error::Custom, alloc::alloc::Global>
FUNC m 66d40 43 0 core::ptr::drop_in_place::<termcolor::LossyStandardStream<termcolor::IoStandardStreamLock>>
FUNC m 66d90 90 0 core::ptr::drop_in_place::<std::io::error::Error>
FUNC m 66e20 239 0 <termcolor::LossyStandardStream<termcolor::IoStandardStreamLock> as std::io::Write>::write_all
FUNC m 67110 ab 0 <termcolor::ColorChoice>::should_attempt_color
FUNC m 671c0 35 0 <termcolor::BufferWriter>::stdout
FUNC m 67200 35 0 <termcolor::BufferWriter>::stderr
FUNC m 67240 3a 0 <termcolor::BufferWriter>::buffer
FUNC m 67280 175 0 <termcolor::BufferWriter>::print
FUNC m 67400 1d 0 <termcolor::ColorSpec>::new
FUNC m 67420 b 0 <termcolor::ColorSpec>::set_fg
FUNC m 67430 d 0 <termcolor::ColorSpec>::set_bold
FUNC m 67440 d 0 <termcolor::ColorSpec>::set_dimmed
FUNC m 67450 6 0 core::ptr::drop_in_place::<std::panicking::begin_panic::PanicPayload<&str>>
FUNC m 67460 17 0 std::sys_common::backtrace::__rust_end_short_backtrace::<std::panicking::begin_panic<&str>::{closure#0}, !>
FUNC m 67480 2b 0 std::panicking::begin_panic::<&str>::{closure#0}
FUNC m 674b0 10 0 <&str as core::any::Any>::type_id
FUNC m 674c0 6 0 core::ptr::drop_in_place::<&str>
FUNC m 674d0 1b 0 <std::panicking::begin_panic::PanicPayload<&str> as core::panic::BoxMeUp>::get
FUNC m 674f0 55 0 <std::panicking::begin_panic::PanicPayload<&str> as core::panic::BoxMeUp>::take_box
FUNC m 67550 8b 0 alloc::raw_vec::finish_grow::<alloc::alloc::Global>
FUNC m 675e0 b2 0 <alloc::raw_vec::RawVec<usize>>::reserve_for_push
FUNC m 676a0 65 0 <textwrap::Options as core::convert::From<&textwrap::Options>>::from
FUNC m 67710 47 0 <textwrap::Options>::new
FUNC m 67760 4a 0 <textwrap::Options>::break_words
FUNC m 677b0 47 0 <textwrap::Options>::word_splitter
FUNC m 67800 6 0 core::ptr::drop_in_place::<core::iter::sources::from_fn::FromFn<textwrap::word_separators::find_words_ascii_space::{closure#0}>>
FUNC m 67810 1f2 0 <core::iter::sources::from_fn::FromFn<textwrap::word_separators::find_words_ascii_space::{closure#0}> as core::iter::traits::iterator::Iterator>::next
FUNC m 67a10 6c 0 <core::iter::sources::from_fn::FromFn<textwrap::word_separators::find_words_ascii_space::{closure#0}> as core::iter::traits::iterator::Iterator>::advance_by
FUNC m 67a80 6b 0 <core::iter::sources::from_fn::FromFn<textwrap::word_separators::find_words_ascii_space::{closure#0}> as core::iter::traits::iterator::Iterator>::nth
FUNC m 67af0 18 0 <core::iter::sources::from_fn::FromFn<textwrap::word_separators::find_words_ascii_space::{closure#0}> as core::iter::traits::iterator::Iterator>::size_hint
FUNC m 67b10 78 0 <textwrap::word_separators::WordSeparator>::find_words
FUNC m 67b90 26f 0 textwrap::core::display_width
FUNC m 67e00 d 0 <textwrap::core::Word as core::ops::deref::Deref>::deref
FUNC m 67e10 105 0 <textwrap::core::Word>::from
FUNC m 67f20 3a 0 <textwrap::core::Word>::break_apart
FUNC m 67f60 28 0 core::ptr::drop_in_place::<alloc::vec::Vec<usize>>
FUNC m 67f90 3dd 0 <textwrap::word_splitters::WordSplitter>::split_points
FUNC m 68370 a 0 core::ptr::drop_in_place::<alloc::vec::drain::Drain<std::ffi::os_str::OsString>>
FUNC m 68380 6 0 core::ptr::drop_in_place::<core::str::error::Utf8Error>
FUNC m 68390 8 0 <clap_lex::RawArgs>::cursor
FUNC m 683a0 c6 0 <clap_lex::RawArgs>::next
FUNC m 68470 38 0 <clap_lex::RawArgs>::next_os
FUNC m 684b0 af 0 <clap_lex::RawArgs>::peek
FUNC m 68560 3a 0 <clap_lex::RawArgs>::remaining
FUNC m 685a0 59 0 <clap_lex::RawArgs>::seek
FUNC m 68600 8b 0 <clap_lex::RawArgs>::insert
FUNC m 68690 10 0 <clap_lex::RawArgs>::is_end
FUNC m 686a0 62 0 <clap_lex::ParsedArg>::is_escape
FUNC m 68710 50 0 <clap_lex::ParsedArg>::is_number
FUNC m 68760 2a6 0 <clap_lex::ParsedArg>::to_long
FUNC m 68a10 d0 0 <clap_lex::ParsedArg>::is_long
FUNC m 68ae0 225 0 <clap_lex::ParsedArg>::to_short
FUNC m 68d10 136 0 <clap_lex::ParsedArg>::is_short
FUNC m 68e50 26 0 <clap_lex::ParsedArg>::to_value_os
FUNC m 68e80 55 0 <clap_lex::ParsedArg>::to_value
FUNC m 68ee0 3e 0 <clap_lex::ParsedArg>::display
FUNC m 68f20 e3 0 <clap_lex::ShortFlags>::advance_by
FUNC m 69010 15 0 <clap_lex::ShortFlags>::is_empty
FUNC m 69030 38 0 <clap_lex::ShortFlags>::is_number
FUNC m 69070 df 0 <clap_lex::ShortFlags>::next_flag
FUNC m 69150 e4 0 <clap_lex::ShortFlags>::next_value_os
FUNC m 69240 df 0 <clap_lex::ShortFlags as core::iter::traits::iterator::Iterator>::next
FUNC m 69320 8b 0 alloc::raw_vec::finish_grow::<alloc::alloc::Global>
FUNC m 693b0 95 0 core::ptr::drop_in_place::<alloc::vec::into_iter::IntoIter<std::ffi::os_str::OsString>>
FUNC m 69450 417 0 <alloc::vec::splice::Splice<core::iter::adapters::map::Map<core::slice::iter::Iter<&str>, <std::ffi::os_str::OsString as core::convert::From<&&str>>::from>> as core::ops::drop::Drop>::drop
FUNC m 69870 e5 0 <alloc::vec::drain::Drain<std::ffi::os_str::OsString> as core::ops::drop::Drop>::drop
FUNC m 69960 85 0 core::ptr::drop_in_place::<alloc::vec::Vec<std::ffi::os_str::OsString>>
FUNC m 699f0 9 0 core::ptr::drop_in_place::<core::iter::traits::iterator::Iterator::for_each::call<std::ffi::os_str::OsString, <alloc::vec::Vec<std::ffi::os_str::OsString> as alloc::vec::spec_extend::SpecExtend<std::ffi::os_str::OsString, &mut core::iter::adapters::map::Map<core::slice::iter::Iter<&str>, <std::ffi::os_str::OsString as core::convert::From<&&str>>::from>>>::spec_extend::{closure#0}>::{closure#0}>
FUNC m 69a00 13c 0 <alloc::vec::Vec<std::ffi::os_str::OsString> as alloc::vec::spec_from_iter::SpecFromIter<std::ffi::os_str::OsString, &mut core::iter::adapters::map::Map<core::slice::iter::Iter<&str>, <std::ffi::os_str::OsString as core::convert::From<&&str>>::from>>>::from_iter
FUNC m 69b40 109 0 <alloc::vec::Vec<std::ffi::os_str::OsString> as alloc::vec::spec_extend::SpecExtend<std::ffi::os_str::OsString, &mut core::iter::adapters::map::Map<core::slice::iter::Iter<&str>, <std::ffi::os_str::OsString as core::convert::From<&&str>>::from>>>::spec_extend
FUNC m 69c50 1bd 0 core::num::dec2flt::lemire::compute_float::<f64>
FUNC m 69e10 23d 0 core::num::dec2flt::slow::parse_long_mantissa::<f64>
FUNC m 6a050 1cc 0 core::num::dec2flt::dec2flt::<f64>
FUNC m 6a220 f4 0 <core::num::dec2flt::number::Number>::try_fast_path::<f64>
FUNC m 6a320 2d 0 <os_str_bytes::pattern::EncodedChar as os_str_bytes::pattern::Encoded>::__get
FUNC m 6a350 d 0 <&str as os_str_bytes::pattern::Encoded>::__get
FUNC m 6a360 bd 0 <char as os_str_bytes::pattern::Pattern>::__encode
FUNC m 6a420 c 0 <&str as os_str_bytes::pattern::Pattern>::__encode
FUNC m 6a430 a9 0 os_str_bytes::raw_str::find
FUNC m 6a4e0 c 0 <os_str_bytes::raw_str::RawOsStr>::from_raw_bytes_unchecked
FUNC m 6a4f0 6 0 <os_str_bytes::raw_str::RawOsStr>::check_bound
FUNC m 6a500 18 0 os_str_bytes::imp::os_str_from_bytes
FUNC m 6a520 18 0 os_str_bytes::imp::os_str_to_bytes
FUNC m 6a540 4d 0 <hashbrown::raw::inner::Fallibility>::capacity_overflow
FUNC m 6a590 17 0 <hashbrown::raw::inner::Fallibility>::alloc_err
FUNC m 6a5b0 d 0 <&std::io::error::Error as core::fmt::Display>::fmt
FUNC m 6a5c0 15d 0 <scroll::error::Error as core::fmt::Display>::fmt
FUNC m 6a740 17 0 <&&str as core::fmt::Display>::fmt
FUNC m 6a760 d 0 <&usize as core::fmt::Display>::fmt
FUNC m 6a770 17 0 <&alloc::string::String as core::fmt::Display>::fmt
FUNC m 6a790 10 0 <T as core::any::Any>::type_id
FUNC m 6a7a0 10 0 <T as core::any::Any>::type_id
FUNC m 6a7b0 10 0 <T as core::any::Any>::type_id
FUNC m 6a7c0 19 0 <&T as core::fmt::Debug>::fmt
FUNC m 6a7e0 10 0 <&T as core::fmt::Debug>::fmt
FUNC m 6a7f0 17 0 <&T as core::fmt::Debug>::fmt
FUNC m 6a810 4c 0 <&T as core::fmt::Debug>::fmt
FUNC m 6a860 15 0 <&T as core::fmt::Debug>::fmt
FUNC m 6a880 d 0 <&T as core::fmt::Debug>::fmt
FUNC m 6a890 4c 0 <&T as core::fmt::Debug>::fmt
FUNC m 6a8e0 17 0 <&T as core::fmt::Display>::fmt
FUNC m 6a900 d 0 <&T as core::fmt::Display>::fmt
FUNC m 6a910 4c 0 core::fmt::num::<impl core::fmt::Debug for i32>::fmt
FUNC m 6a960 f5 0 core::fmt::Write::write_char
FUNC m 6aa60 f5 0 core::fmt::Write::write_char
FUNC m 6ab60 fd 0 core::fmt::Write::write_char
FUNC m 6ac60 f5 0 core::fmt::Write::write_char
FUNC m 6ad60 55 0 core::fmt::Write::write_fmt
FUNC m 6adc0 55 0 core::fmt::Write::write_fmt
FUNC m 6ae20 55 0 core::fmt::Write::write_fmt
FUNC m 6ae80 55 0 core::fmt::Write::write_fmt
FUNC m 6aee0 ea 0 core::ops::function::FnOnce::call_once{{vtable.shim}}
FUNC m 6afd0 89 0 core::ops::function::FnOnce::call_once{{vtable.shim}}
FUNC m 6b060 a 0 core::ops::function::FnOnce::call_once{{vtable.shim}}
FUNC m 6b070 c1 0 core::ops::function::FnOnce::call_once{{vtable.shim}}
FUNC m 6b140 1e 0 core::ops::function::FnOnce::call_once{{vtable.shim}}
FUNC m 6b160 7e 0 core::ops::function::FnOnce::call_once{{vtable.shim}}
FUNC m 6b1e0 c5 0 core::ops::function::FnOnce::call_once{{vtable.shim}}
FUNC m 6b2b0 a 0 core::ops::function::FnOnce::call_once{{vtable.shim}}
FUNC m 6b2c0 97 0 core::ops::function::FnOnce::call_once{{vtable.shim}}
FUNC m 6b360 d 0 core::ops::function::FnOnce::call_once{{vtable.shim}}
FUNC m 6b370 1e 0 core::ops::function::FnOnce::call_once{{vtable.shim}}
FUNC m 6b390 9 0 core::ops::function::FnOnce::call_once
FUNC m 6b3a0 6 0 core::ptr::drop_in_place<&mut std::io::Write::write_fmt::Adapter<alloc::vec::Vec<u8>>>
FUNC m 6b3b0 18 0 core::ptr::drop_in_place<alloc::sync::Arc<std::sync::mutex::Mutex<alloc::vec::Vec<u8>>>>
FUNC m 6b3d0 da 0 core::ptr::drop_in_place<alloc::vec::Vec<(usize,std::backtrace_rs::symbolize::gimli::Mapping)>>
FUNC m 6b4b0 43 0 core::ptr::drop_in_place<core::result::Result<alloc::ffi::c_str::CString,alloc::ffi::c_str::NulError>>
FUNC m 6b500 18 0 core::ptr::drop_in_place<alloc::sync::Arc<core::mem::maybe_uninit::MaybeUninit<std::thread::Inner>>>
FUNC m 6b520 d2 0 core::ptr::drop_in_place<alloc::collections::btree::map::BTreeMap<u64,gimli::read::abbrev::Abbreviation>>
FUNC m 6b600 29 0 core::ptr::drop_in_place<alloc::raw_vec::RawVec<(usize,std::backtrace_rs::symbolize::gimli::Mapping)>>
FUNC m 6b630 9 0 core::ptr::drop_in_place<core::cell::RefMut<core::option::Option<std::sys_common::thread_info::ThreadInfo>>>
FUNC m 6b640 2e 0 core::ptr::drop_in_place<<std::backtrace::Backtrace as core::fmt::Display>::fmt::{{closure}}>
FUNC m 6b670 2d 0 core::ptr::drop_in_place<alloc::vec::Vec<(gimli::common::DebugInfoOffset,gimli::common::DebugArangesOffset)>>
FUNC m 6b6a0 11 0 core::ptr::drop_in_place<addr2line::lazy::LazyCell<core::result::Result<addr2line::Lines,gimli::read::Error>>>
FUNC m 6b6c0 15 0 core::ptr::drop_in_place<core::option::Option<core::option::Option<std::backtrace_rs::symbolize::gimli::Mapping>>>
FUNC m 6b6e0 6f 0 core::ptr::drop_in_place<addr2line::ResUnit<gimli::read::endian_slice::EndianSlice<gimli::endianity::LittleEndian>>>
FUNC m 6b750 a9 0 core::ptr::drop_in_place<addr2line::ResDwarf<gimli::read::endian_slice::EndianSlice<gimli::endianity::LittleEndian>>>
FUNC m 6b800 33 0 core::ptr::drop_in_place<addr2line::FrameIter<gimli::read::endian_slice::EndianSlice<gimli::endianity::LittleEndian>>>
FUNC m 6b840 25 0 core::ptr::drop_in_place<gimli::read::dwarf::Dwarf<gimli::read::endian_slice::EndianSlice<gimli::endianity::LittleEndian>>>
FUNC m 6b870 4c 0 core::ptr::drop_in_place<alloc::boxed::Box<dyn core::ops::function::FnOnce<()>+Output = ()>>
FUNC m 6b8c0 ea 0 core::ptr::drop_in_place<gimli::read::dwarf::Unit<gimli::read::endian_slice::EndianSlice<gimli::endianity::LittleEndian>,usize>>
FUNC m 6b9b0 fa 0 core::ptr::drop_in_place<alloc::vec::Vec<core::option::Option<core::option::Option<std::backtrace_rs::symbolize::gimli::Mapping>>>>
FUNC m 6bab0 136 0 core::ptr::drop_in_place<alloc::vec::Vec<addr2line::ResUnit<gimli::read::endian_slice::EndianSlice<gimli::endianity::LittleEndian>>>>
FUNC m 6bbf0 29 0 core::ptr::drop_in_place<alloc::raw_vec::RawVec<core::option::Option<core::option::Option<std::backtrace_rs::symbolize::gimli::Mapping>>>>
FUNC m 6bc20 29 0 core::ptr::drop_in_place<alloc::raw_vec::RawVec<addr2line::ResUnit<gimli::read::endian_slice::EndianSlice<gimli::endianity::LittleEndian>>>>
FUNC m 6bc50 b2 0 core::ptr::drop_in_place<gimli::read::line::IncompleteLineProgram<gimli::read::endian_slice::EndianSlice<gimli::endianity::LittleEndian>,usize>>
FUNC m 6bd10 15 0 core::ptr::drop_in_place<alloc::sync::Arc<gimli::read::dwarf::Dwarf<gimli::read::endian_slice::EndianSlice<gimli::endianity::LittleEndian>>>>
FUNC m 6bd30 25 0 core::ptr::drop_in_place<alloc::sync::ArcInner<gimli::read::dwarf::Dwarf<gimli::read::endian_slice::EndianSlice<gimli::endianity::LittleEndian>>>>
FUNC m 6bd60 2d 0 core::ptr::drop_in_place<alloc::vec::Vec<addr2line::function::InlinedFunction<gimli::read::endian_slice::EndianSlice<gimli::endianity::LittleEndian>>>>
FUNC m 6bd90 2d 0 core::ptr::drop_in_place<alloc::vec::Vec<gimli::read::line::FileEntry<gimli::read::endian_slice::EndianSlice<gimli::endianity::LittleEndian>,usize>>>
FUNC m 6bdc0 2d 0 core::ptr::drop_in_place<alloc::vec::Vec<&addr2line::function::InlinedFunction<gimli::read::endian_slice::EndianSlice<gimli::endianity::LittleEndian>>>>
FUNC m 6bdf0 2d 0 core::ptr::drop_in_place<alloc::vec::Vec<gimli::read::unit::AttributeValue<gimli::read::endian_slice::EndianSlice<gimli::endianity::LittleEndian>,usize>>>
FUNC m 6be20 1c 0 core::ptr::drop_in_place<std::sys_common::remutex::ReentrantMutexGuard<core::cell::RefCell<std::io::buffered::linewriter::LineWriter<std::io::stdio::StdoutRaw>>>>
FUNC m 6be40 25 0 core::ptr::drop_in_place<alloc::boxed::Box<[addr2line::function::InlinedFunction<gimli::read::endian_slice::EndianSlice<gimli::endianity::LittleEndian>>]>>
FUNC m 6be70 45 0 core::ptr::drop_in_place<core::option::Option<alloc::boxed::Box<addr2line::ResDwarf<gimli::read::endian_slice::EndianSlice<gimli::endianity::LittleEndian>>>>>
FUNC m 6bec0 15 0 core::ptr::drop_in_place<core::option::Option<gimli::read::line::IncompleteLineProgram<gimli::read::endian_slice::EndianSlice<gimli::endianity::LittleEndian>,usize>>>
FUNC m 6bee0 db 0 core::ptr::drop_in_place<core::result::Result<addr2line::function::Functions<gimli::read::endian_slice::EndianSlice<gimli::endianity::LittleEndian>>,gimli::read::Error>>
FUNC m 6bfc0 11 0 core::ptr::drop_in_place<addr2line::lazy::LazyCell<core::result::Result<addr2line::function::Functions<gimli::read::endian_slice::EndianSlice<gimli::endianity::LittleEndian>>,gimli::read::Error>>>
FUNC m 6bfe0 1d 0 core::ptr::drop_in_place<std::error::<impl core::convert::From<alloc::string::String> for alloc::boxed::Box<dyn std::error::Error+core::marker::Send+core::marker::Sync>>::from::StringError>
FUNC m 6c000 57 0 core::ptr::drop_in_place<(gimli::read::unit::UnitOffset,addr2line::lazy::LazyCell<core::result::Result<addr2line::function::Function<gimli::read::endian_slice::EndianSlice<gimli::endianity::LittleEndian>>,gimli::read::Error>>)>
FUNC m 6c060 a 0 core::ptr::drop_in_place<gimli::read::line::LineRows<gimli::read::endian_slice::EndianSlice<gimli::endianity::LittleEndian>,gimli::read::line::IncompleteLineProgram<gimli::read::endian_slice::EndianSlice<gimli::endianity::LittleEndian>,usize>,usize>>
FUNC m 6c070 bb 0 core::ptr::drop_in_place<alloc::vec::Vec<(gimli::read::unit::UnitOffset,addr2line::lazy::LazyCell<core::result::Result<addr2line::function::Function<gimli::read::endian_slice::EndianSlice<gimli::endianity::LittleEndian>>,gimli::read::Error>>)>>
FUNC m 6c130 b0 0 core::ptr::drop_in_place<alloc::boxed::Box<[(gimli::read::unit::UnitOffset,addr2line::lazy::LazyCell<core::result::Result<addr2line::function::Function<gimli::read::endian_slice::EndianSlice<gimli::endianity::LittleEndian>>,gimli::read::Error>>)]>>
FUNC m 6c1e0 a 0 core::ptr::drop_in_place<std::fs::File>
FUNC m 6c1f0 11 0 core::ptr::drop_in_place<std::io::Guard>
FUNC m 6c210 18 0 core::ptr::drop_in_place<std::fs::ReadDir>
FUNC m 6c230 18 0 core::ptr::drop_in_place<std::thread::Thread>
FUNC m 6c250 90 0 core::ptr::drop_in_place<std::io::error::Error>
FUNC m 6c2e0 26 0 core::ptr::drop_in_place<addr2line::LineSequence>
FUNC m 6c310 63 0 core::ptr::drop_in_place<object::read::ObjectMap>
FUNC m 6c380 1d 0 core::ptr::drop_in_place<std::sync::once::Waiter>
FUNC m 6c3a0 1d 0 core::ptr::drop_in_place<alloc::vec::Vec<u8>>
FUNC m 6c3c0 57 0 core::ptr::drop_in_place<std::io::stdio::StdinLock>
FUNC m 6c420 23 0 core::ptr::drop_in_place<alloc::ffi::c_str::CString>
FUNC m 6c450 1c 0 core::ptr::drop_in_place<std::io::stdio::StderrLock>
FUNC m 6c470 1c 0 core::ptr::drop_in_place<std::io::stdio::StdoutLock>
FUNC m 6c490 a 0 core::ptr::drop_in_place<std::sync::once::WaiterQueue>
FUNC m 6c4a0 24 0 core::ptr::drop_in_place<alloc::borrow::Cow<str>>
FUNC m 6c4d0 d1 0 core::ptr::drop_in_place<std::backtrace::BacktraceFrame>
FUNC m 6c5b0 34 0 core::ptr::drop_in_place<gimli::read::abbrev::Attributes>
FUNC m 6c5f0 71 0 core::ptr::drop_in_place<std::backtrace::BacktraceSymbol>
FUNC m 6c670 aa 0 core::ptr::drop_in_place<gimli::read::abbrev::Abbreviations>
FUNC m 6c720 d 0 core::ptr::drop_in_place<std::sys_common::mutex::StaticMutexGuard>
FUNC m 6c730 11 0 core::ptr::drop_in_place<core::iter::adapters::map::map_fold<isize,std::ffi::os_str::OsString,(),std::sys::unix::args::imp::args::{{closure}},core::iter::traits::iterator::Iterator::for_each::call<std::ffi::os_str::OsString,<alloc::vec::Vec<std::ffi::os_str::OsString> as alloc::vec::spec_extend::SpecExtend<std::ffi::os_str::OsString,core::iter::adapters::map::Map<core::ops::range::Range<isize>,std::sys::unix::args::imp::args::{{closure}}>>>::spec_extend::{{closure}}>::{{closure}}>::{{closure}}>
FUNC m 6c750 2d 0 core::ptr::drop_in_place<alloc::vec::Vec<addr2line::UnitRange>>
FUNC m 6c780 d 0 core::ptr::drop_in_place<std::backtrace_rs::print::BacktraceFrameFmt>
FUNC m 6c790 a 0 core::ptr::drop_in_place<std::sys::unix::locks::pthread_mutex::Mutex>
FUNC m 6c7a0 8f 0 core::ptr::drop_in_place<alloc::vec::Vec<alloc::string::String>>
FUNC m 6c830 118 0 core::ptr::drop_in_place<std::backtrace_rs::symbolize::gimli::Mapping>
FUNC m 6c950 96 0 core::ptr::drop_in_place<alloc::vec::Vec<addr2line::LineSequence>>
FUNC m 6c9f0 15 0 core::ptr::drop_in_place<std::sys_common::rwlock::StaticRwLockReadGuard>
FUNC m 6ca10 1d 0 core::ptr::drop_in_place<core::option::Option<std::thread::Thread>>
FUNC m 6ca30 a 0 core::ptr::drop_in_place<std::backtrace_rs::symbolize::gimli::mmap::Mmap>
FUNC m 6ca40 a 0 core::ptr::drop_in_place<std::sys::unix::locks::pthread_condvar::Condvar>
FUNC m 6ca50 8f 0 core::ptr::drop_in_place<alloc::vec::Vec<std::ffi::os_str::OsString>>
FUNC m 6cae0 a3 0 core::ptr::drop_in_place<std::backtrace_rs::symbolize::gimli::stash::Stash>
FUNC m 6cb90 26 0 core::ptr::drop_in_place<std::panicking::begin_panic_handler::PanicPayload>
FUNC m 6cbc0 15a 0 core::ptr::drop_in_place<std::backtrace_rs::symbolize::gimli::macho::Object>
FUNC m 6cd20 a 0 core::ptr::drop_in_place<alloc::collections::btree::mem::replace::PanicGuard>
FUNC m 6cd30 68 0 core::ptr::drop_in_place<core::option::Option<object::read::ObjectMap>>
FUNC m 6cda0 25 0 core::ptr::drop_in_place<core::option::Option<alloc::vec::Vec<u8>>>
FUNC m 6cdd0 28 0 core::ptr::drop_in_place<core::option::Option<alloc::ffi::c_str::CString>>
FUNC m 6ce00 d 0 core::ptr::drop_in_place<std::sys::unix::locks::pthread_mutex::PthreadMutexAttr>
FUNC m 6ce10 84 0 core::ptr::drop_in_place<alloc::boxed::Box<[alloc::string::String]>>
FUNC m 6cea0 2d 0 core::ptr::drop_in_place<alloc::vec::Vec<gimli::read::line::FileEntryFormat>>
FUNC m 6ced0 16 0 core::ptr::drop_in_place<core::result::Result<usize,std::io::error::Error>>
FUNC m 6cef0 e 0 core::ptr::drop_in_place<(usize,std::backtrace_rs::symbolize::gimli::Mapping)>
FUNC m 6cf00 12 0 core::ptr::drop_in_place<core::result::Result<(),std::io::error::Error>>
FUNC m 6cf20 36 0 core::ptr::drop_in_place<alloc::sync::ArcInner<std::sys::unix::fs::InnerReadDir>>
FUNC m 6cf60 1a 0 core::ptr::drop_in_place<std::sys_common::thread_info::set::{{closure}}>
FUNC m 6cf80 1d 0 core::ptr::drop_in_place<std::io::stdio::set_output_capture::{{closure}}>
FUNC m 6cfa0 f3 0 core::ptr::drop_in_place<core::result::Result<addr2line::Lines,gimli::read::Error>>
FUNC m 6d0a0 33 0 core::ptr::drop_in_place<core::slice::sort::CopyOnDrop<object::read::ObjectMapEntry>>
FUNC m 6d0e0 17 0 core::ptr::drop_in_place<std::io::Write::write_fmt::Adapter<&mut [u8]>>
FUNC m 6d100 ad 0 core::ptr::drop_in_place<alloc::vec::Vec<std::backtrace_rs::symbolize::gimli::Library>>
FUNC m 6d1b0 23 0 core::ptr::drop_in_place<core::slice::sort::CopyOnDrop<(&[u8],u64)>>
FUNC m 6d1e0 25 0 core::ptr::drop_in_place<std::sys_common::backtrace::_print_fmt::{{closure}}>
FUNC m 6d210 29 0 core::ptr::drop_in_place<alloc::boxed::Box<std::sys::unix::locks::pthread_mutex::Mutex>>
FUNC m 6d240 52 0 core::ptr::drop_in_place<std::io::buffered::bufwriter::BufWriter<W>::flush_buf::BufGuard>
FUNC m 6d2a0 44 0 core::ptr::drop_in_place<core::result::Result<alloc::string::String,std::env::VarError>>
FUNC m 6d2f0 58 0 core::ptr::drop_in_place<core::option::IntoIter<std::backtrace_rs::symbolize::gimli::Library>>
FUNC m 6d350 6d 0 core::ptr::drop_in_place<std::io::buffered::linewriter::LineWriter<std::io::stdio::StdoutRaw>>
FUNC m 6d3c0 485 0 core::str::<impl str>::contains
FUNC m 6d850 125 0 core::slice::sort::shift_tail
FUNC m 6d980 17a 0 core::slice::sort::choose_pivot::{{closure}}
FUNC m 6db00 1362 0 core::slice::sort::recurse
FUNC m 6ee70 fd5 0 core::slice::sort::recurse
FUNC m 6fe50 1056 0 core::slice::sort::recurse
FUNC m 70eb0 178 0 core::slice::sort::heapsort::{{closure}}
FUNC m 71030 25 0 core::option::Option<T>::unwrap
FUNC m 71060 21 0 core::option::Option<T>::unwrap
FUNC m 71090 d 0 <*mut T as core::fmt::Debug>::fmt
FUNC m 710a0 10 0 <&mut W as core::fmt::Write>::write_char
FUNC m 710b0 d 0 <&mut W as core::fmt::Write>::write_char
FUNC m 710c0 d 0 <&mut W as core::fmt::Write>::write_char
FUNC m 710d0 d 0 <&mut W as core::fmt::Write>::write_char
FUNC m 710e0 10 0 <&mut W as core::fmt::Write>::write_char
FUNC m 710f0 58 0 <&mut W as core::fmt::Write>::write_fmt
FUNC m 71150 58 0 <&mut W as core::fmt::Write>::write_fmt
FUNC m 711b0 58 0 <&mut W as core::fmt::Write>::write_fmt
FUNC m 71210 58 0 <&mut W as core::fmt::Write>::write_fmt
FUNC m 71270 58 0 <&mut W as core::fmt::Write>::write_fmt
FUNC m 712d0 4f 0 <&mut W as core::fmt::Write>::write_str
FUNC m 71320 60 0 <&mut W as core::fmt::Write>::write_str
FUNC m 71380 63 0 <&mut W as core::fmt::Write>::write_str
FUNC m 713f0 4f 0 <&mut W as core::fmt::Write>::write_str
FUNC m 71440 4f 0 <&mut W as core::fmt::Write>::write_str
FUNC m 71490 17 0 <alloc::string::String as core::fmt::Debug>::fmt
FUNC m 714b0 10f 0 <alloc::string::String as core::fmt::Write>::write_char
FUNC m 715c0 39d 0 alloc::collections::btree::map::IntoIter<K,V,A>::dying_next
FUNC m 71960 56 0 alloc::sync::Arc<T>::drop_slow
FUNC m 719c0 22 0 alloc::sync::Arc<T>::drop_slow
FUNC m 719f0 6c 0 alloc::sync::Arc<T>::drop_slow
FUNC m 71a60 6a 0 alloc::sync::Arc<T>::drop_slow
FUNC m 71ad0 55 0 alloc::sync::Arc<T>::drop_slow
FUNC m 71b30 1c 0 alloc::alloc::box_free
FUNC m 71b50 1a 0 alloc::alloc::box_free
FUNC m 71b70 14 0 alloc::alloc::box_free
FUNC m 71b90 14 0 alloc::alloc::box_free
FUNC m 71bb0 14 0 alloc::alloc::box_free
FUNC m 71bd0 8d 0 alloc::raw_vec::finish_grow
FUNC m 71c60 b4 0 alloc::raw_vec::RawVec<T,A>::reserve_for_push
FUNC m 71d20 b4 0 alloc::raw_vec::RawVec<T,A>::reserve_for_push
FUNC m 71de0 b4 0 alloc::raw_vec::RawVec<T,A>::reserve_for_push
FUNC m 71ea0 ae 0 alloc::raw_vec::RawVec<T,A>::reserve_for_push
FUNC m 71f50 93 0 alloc::raw_vec::RawVec<T,A>::reserve_for_push
FUNC m 71ff0 b4 0 alloc::raw_vec::RawVec<T,A>::reserve_for_push
FUNC m 720b0 b4 0 alloc::raw_vec::RawVec<T,A>::reserve_for_push
FUNC m 72170 b4 0 alloc::raw_vec::RawVec<T,A>::reserve_for_push
FUNC m 72230 b2 0 alloc::raw_vec::RawVec<T,A>::reserve_for_push
FUNC m 722f0 b4 0 alloc::raw_vec::RawVec<T,A>::reserve_for_push
FUNC m 723b0 b4 0 alloc::raw_vec::RawVec<T,A>::reserve_for_push
FUNC m 72470 365 0 gimli::read::line::FileEntryFormat::parse
FUNC m 727e0 91c 0 gimli::read::line::parse_attribute
FUNC m 731a0 1236 0 gimli::read::unit::parse_attribute
FUNC m 74530 60 0 gimli::read::unit::Attribute<R>::udata_value
FUNC m 745b0 45c 0 gimli::read::unit::Attribute<R>::value
FUNC m 74c60 6d 0 gimli::read::unit::Attribute<R>::u8_value
FUNC m 74cf0 53 0 gimli::read::unit::Attribute<R>::u16_value
FUNC m 74d60 1d3 0 gimli::read::dwarf::Dwarf<R>::attr_string
FUNC m 74f50 ab 0 gimli::read::reader::Reader::read_offset
FUNC m 75000 125 0 gimli::read::reader::Reader::read_sized_offset
FUNC m 75150 3a 0 gimli::read::Section::load
FUNC m 75190 3a 0 gimli::read::Section::load
FUNC m 751d0 3a 0 gimli::read::Section::load
FUNC m 75210 3a 0 gimli::read::Section::load
FUNC m 75250 257 0 gimli::read::aranges::ArangeHeader<R,Offset>::parse
FUNC m 754b0 e51 0 gimli::read::rnglists::RngListIter<R>::next
FUNC m 76430 17 0 <alloc::string::String as core::fmt::Display>::fmt
FUNC m 76450 294 0 object::read::archive::ArchiveMember::parse
FUNC m 766f0 b1 0 object::read::archive::parse_bsd_extended_name
FUNC m 767b0 79 0 <core::result::Result<T,E> as core::fmt::Debug>::fmt
FUNC m 76830 34e 0 <gimli::read::unit::AttributeValue<R,Offset> as core::clone::Clone>::clone
FUNC m 76c40 2f08 0 addr2line::Context<R>::find_frames
FUNC m 79b50 278b 0 addr2line::ResUnit<R>::parse_lines
FUNC m 7c340 3f1 0 addr2line::ResUnit<R>::render_file
FUNC m 7c740 4d12 0 addr2line::ResDwarf<R>::parse
FUNC m 81600 2a5 0 addr2line::FrameIter<R>::next
FUNC m 818b0 450 0 addr2line::function::name_entry
FUNC m 81d00 fc8 0 addr2line::function::Function<R>::parse_children
FUNC m 82e60 169 0 addr2line::function::name_attr
FUNC m 82fd0 4d 0 std::rt::cleanup
FUNC m 83020 9b9 0 std::rt::lang_start_internal
FUNC m 839e0 96 0 std::rt::lang_start_internal::{{closure}}
FUNC m 83a80 96 0 std::rt::lang_start_internal::{{closure}}
FUNC m 83b20 30 0 <std::thread::local::AccessError as core::fmt::Debug>::fmt
FUNC m 83b50 198 0 std::thread::local::fast::Key<T>::try_initialize
FUNC m 83cf0 2f 0 std::thread::local::fast::destroy_value
FUNC m 83d20 a6 0 std::thread::scoped::ScopeData::decrement_num_running_threads
FUNC m 83dd0 18 0 std::thread::Builder::new
FUNC m 83df0 28 0 std::thread::current
FUNC m 83e20 a 0 std::thread::yield_now
FUNC m 83e30 b1 0 std::thread::sleep
FUNC m 83ef0 188 0 std::thread::park
FUNC m 84080 1fd 0 std::thread::Thread::new
FUNC m 84280 11 0 std::thread::Thread::cname
FUNC m 842a0 12b 0 std::backtrace::Backtrace::capture
FUNC m 843d0 118 0 std::backtrace::Backtrace::create
FUNC m 844f0 155 0 std::backtrace::Backtrace::create::{{closure}}
FUNC m 84650 8 0 std::backtrace::Backtrace::status
FUNC m 84660 510 0 <std::backtrace::Backtrace as core::fmt::Display>::fmt
FUNC m 84b70 45 0 <std::backtrace::Backtrace as core::fmt::Display>::fmt::{{closure}}
FUNC m 84bc0 1f1 0 std::backtrace::Capture::resolve::{{closure}}
FUNC m 84dc0 1ce 0 std::env::current_dir
FUNC m 84f90 101 0 std::env::_var
FUNC m 850a0 154 0 std::env::_var_os
FUNC m 85200 183 0 std::env::args_os
FUNC m 85390 3a 0 <std::env::ArgsOs as core::iter::traits::iterator::Iterator>::next
FUNC m 853d0 31 0 <std::env::ArgsOs as core::iter::traits::iterator::Iterator>::size_hint
FUNC m 85410 d 0 <std::error::<impl core::convert::From<alloc::string::String> for alloc::boxed::Box<dyn std::error::Error+core::marker::Send+core::marker::Sync>>::from::StringError as std::error::Error>::description
FUNC m 85420 17 0 <std::error::<impl core::convert::From<alloc::string::String> for alloc::boxed::Box<dyn std::error::Error+core::marker::Send+core::marker::Sync>>::from::StringError as core::fmt::Display>::fmt
FUNC m 85440 17 0 <std::error::<impl core::convert::From<alloc::string::String> for alloc::boxed::Box<dyn std::error::Error+core::marker::Send+core::marker::Sync>>::from::StringError as core::fmt::Debug>::fmt
FUNC m 85460 a 0 <core::num::error::ParseIntError as std::error::Error>::description
FUNC m 85470 a 0 <core::num::error::TryFromIntError as std::error::Error>::description
FUNC m 85480 d9 0 std::fs::OpenOptions::_open
FUNC m 85560 127 0 <std::io::buffered::bufreader::BufReader<R> as std::io::BufRead>::fill_buf
FUNC m 85690 32d 0 std::io::buffered::bufwriter::BufWriter<W>::flush_buf
FUNC m 85a80 b 0 std::io::buffered::bufwriter::BufWriter<W>::flush_buf::BufGuard::new
FUNC m 85a90 2b 0 std::io::buffered::bufwriter::BufWriter<W>::flush_buf::BufGuard::remaining
FUNC m 85ac0 a 0 std::io::buffered::bufwriter::BufWriter<W>::flush_buf::BufGuard::consume
FUNC m 85ad0 14 0 std::io::buffered::bufwriter::BufWriter<W>::flush_buf::BufGuard::done
FUNC m 85af0 52 0 <std::io::buffered::bufwriter::BufWriter<W>::flush_buf::BufGuard as core::ops::drop::Drop>::drop
FUNC m 85b50 a 0 <std::io::error::Error as core::fmt::Debug>::fmt
FUNC m 85b60 74 0 std::io::error::Error::_new
FUNC m 85be0 2e8 0 std::io::error::<impl core::fmt::Debug for std::io::error::repr_bitpacked::Repr>::fmt
FUNC m 85f80 3fa 0 <std::io::error::Error as core::fmt::Display>::fmt
FUNC m 86430 74 0 std::io::impls::<impl std::io::Write for alloc::vec::Vec<u8,A>>::write
FUNC m 864b0 1aa 0 std::io::impls::<impl std::io::Write for alloc::vec::Vec<u8,A>>::write_vectored
FUNC m 86660 8 0 std::io::impls::<impl std::io::Write for alloc::vec::Vec<u8,A>>::is_write_vectored
FUNC m 86670 5e 0 std::io::impls::<impl std::io::Write for alloc::vec::Vec<u8,A>>::write_all
FUNC m 866d0 8 0 std::io::impls::<impl std::io::Write for alloc::vec::Vec<u8,A>>::flush
FUNC m 866e0 28 0 std::io::stdio::stdin
FUNC m 86710 4e 0 std::io::stdio::Stdin::lock
FUNC m 86760 d7 0 <std::io::stdio::StdinLock as std::io::BufRead>::read_line
FUNC m 86840 72 0 std::io::stdio::stdout
FUNC m 868c0 65 0 std::io::stdio::Stdout::lock
FUNC m 86930 20 0 <std::io::stdio::Stdout as std::io::Write>::write
FUNC m 86950 bf 0 <&std::io::stdio::Stdout as std::io::Write>::write
FUNC m 86a10 146 0 <&std::io::stdio::Stdout as std::io::Write>::write_fmt
FUNC m 86b60 32b 0 <std::io::stdio::StdoutLock as std::io::Write>::write
FUNC m 86e90 6c 0 <std::io::stdio::StdoutLock as std::io::Write>::flush
FUNC m 86f00 226 0 <std::io::stdio::StdoutLock as std::io::Write>::write_all
FUNC m 87130 72 0 std::io::stdio::stderr
FUNC m 871b0 65 0 std::io::stdio::Stderr::lock
FUNC m 87220 20 0 <std::io::stdio::Stderr as std::io::Write>::write
FUNC m 87240 4e 0 <std::io::stdio::Stderr as std::io::Write>::write_fmt
FUNC m 87290 bf 0 <&std::io::stdio::Stderr as std::io::Write>::write
FUNC m 87350 146 0 <&std::io::stdio::Stderr as std::io::Write>::write_fmt
FUNC m 874a0 ef 0 <std::io::stdio::StderrLock as std::io::Write>::write
FUNC m 87590 45 0 <std::io::stdio::StderrLock as std::io::Write>::flush
FUNC m 875e0 9c 0 <std::io::stdio::StderrLock as std::io::Write>::write_all
FUNC m 87680 a6 0 std::io::stdio::set_output_capture
FUNC m 87730 3c0 0 std::io::stdio::_print
FUNC m 87af0 3c0 0 std::io::stdio::_eprint
FUNC m 87eb0 d1 0 std::io::Write::write_all
FUNC m 87f90 d1 0 std::io::Write::write_all
FUNC m 88070 20e 0 std::io::Write::write_all_vectored
FUNC m 88280 30c 0 std::io::Write::write_all_vectored
FUNC m 88590 a1 0 std::io::Write::write_fmt
FUNC m 88640 a1 0 std::io::Write::write_fmt
FUNC m 886f0 4f 0 <std::io::Write::write_fmt::Adapter<T> as core::fmt::Write>::write_str
FUNC m 88740 4f 0 <std::io::Write::write_fmt::Adapter<T> as core::fmt::Write>::write_str
FUNC m 88790 4f 0 <std::io::Write::write_fmt::Adapter<T> as core::fmt::Write>::write_str
FUNC m 887e0 60 0 <std::io::Write::write_fmt::Adapter<T> as core::fmt::Write>::write_str
FUNC m 88840 316 0 std::io::read_until
FUNC m 88c10 c3 0 std::panic::get_backtrace_style
FUNC m 88cf0 3f3 0 std::path::Components::as_path
FUNC m 89100 e2 0 std::path::Components::include_cur_dir
FUNC m 89200 1b4 0 std::path::Components::parse_next_component_back
FUNC m 893d0 414 0 <std::path::Components as core::iter::traits::iterator::Iterator>::next
FUNC m 89830 673 0 <std::path::Components as core::iter::traits::double_ended::DoubleEndedIterator>::next_back
FUNC m 89ee0 71 0 std::path::Path::file_name
FUNC m 89f60 2cd 0 std::path::Path::_strip_prefix
FUNC m 8a230 e4 0 std::path::Path::file_stem
FUNC m 8a320 135 0 std::path::Path::_join
FUNC m 8a460 14 0 std::process::exit
FUNC m 8a480 a 0 std::process::id
FUNC m 8a490 8 0 std::sys::unix::stdio::panic_output
FUNC m 8a4a0 26 0 std::sync::condvar::Condvar::notify_one
FUNC m 8a4d0 c5 0 std::sync::once::Once::call_once::{{closure}}
FUNC m 8a5a0 26b 0 std::sync::once::Once::call_once::{{closure}}
FUNC m 8a810 ea 0 std::sync::once::Once::call_once_force::{{closure}}
FUNC m 8a900 89 0 std::sync::once::Once::call_once_force::{{closure}}
FUNC m 8a990 c1 0 std::sync::once::Once::call_once_force::{{closure}}
FUNC m 8aa60 150 0 <std::sync::once::WaiterQueue as core::ops::drop::Drop>::drop
FUNC m 8abb0 a 0 std::time::Instant::now
FUNC m 8abc0 d5 0 <std::time::Instant as core::ops::arith::Add<core::time::Duration>>::add
FUNC m 8aca0 de 0 <std::time::Instant as core::ops::arith::Sub>::sub
FUNC m 8ad80 20e 0 <std::sys_common::backtrace::_print::DisplayBacktrace as core::fmt::Display>::fmt
FUNC m 8af90 41 0 std::sys_common::backtrace::_print_fmt::{{closure}}
FUNC m 8afe0 12e 0 std::sys_common::backtrace::_print_fmt::{{closure}}
FUNC m 8b110 236 0 std::sys_common::backtrace::_print_fmt::{{closure}}::{{closure}}
FUNC m 8b350 17 0 std::sys_common::backtrace::__rust_end_short_backtrace
FUNC m 8b370 172 0 std::sys_common::backtrace::output_filename
FUNC m 8b4f0 8 0 std::sys_common::condvar::check::SameMutexCheck::new
FUNC m 8b500 7d 0 std::sys_common::condvar::check::SameMutexCheck::verify
FUNC m 8b580 14 0 std::sys_common::mutex::MovableMutex::raw
FUNC m 8b5a0 11c 0 std::sys_common::rwlock::StaticRwLock::read
FUNC m 8b6c0 eb 0 std::sys_common::thread::min_stack
FUNC m 8b7b0 1c6 0 std::sys_common::thread_info::current_thread
FUNC m 8b980 348 0 std::sys_common::thread_info::set
FUNC m 8bcd0 11f 0 std::alloc::default_alloc_error_hook
FUNC m 8bdf0 20 0 rust_oom
FUNC m 8be10 62 0 __rdl_alloc
FUNC m 8be80 a 0 __rdl_dealloc
FUNC m 8be90 a7 0 __rdl_realloc
FUNC m 8bf40 ee 0 __rust_drop_panic
FUNC m 8c030 ee 0 __rust_foreign_exception
FUNC m 8c120 3cc 0 std::panicking::default_hook
FUNC m 8c4f0 210 0 std::panicking::default_hook::{{closure}}
FUNC m 8c700 4a 0 rust_begin_unwind
FUNC m 8c750 149 0 <std::panicking::begin_panic_handler::PanicPayload as core::panic::BoxMeUp>::take_box
FUNC m 8c8a0 b6 0 <std::panicking::begin_panic_handler::PanicPayload as core::panic::BoxMeUp>::get
FUNC m 8c960 44 0 <std::panicking::begin_panic_handler::StrPanicPayload as core::panic::BoxMeUp>::take_box
FUNC m 8c9b0 10 0 <std::panicking::begin_panic_handler::StrPanicPayload as core::panic::BoxMeUp>::get
FUNC m 8c9c0 c9 0 std::panicking::begin_panic_handler::{{closure}}
FUNC m 8ca90 322 0 std::panicking::rust_panic_with_hook
FUNC m 8cdc0 c9 0 rust_panic
FUNC m 8ce90 116 0 std::backtrace_rs::symbolize::Symbol::name
FUNC m 8cfb0 6f4 0 std::backtrace_rs::print::BacktraceFrameFmt::print_raw_with_column
FUNC m 8d6b0 29f 0 <std::io::error::ErrorKind as core::fmt::Debug>::fmt
FUNC m 8da00 b3 0 <std::path::Component as core::cmp::PartialEq>::eq
FUNC m 8dad0 151 0 <std::sys::unix::fs::ReadDir as core::iter::traits::iterator::Iterator>::next
FUNC m 8dc30 18d 0 std::sys::unix::fs::File::open_c
FUNC m 8ddc0 1f0 0 std::sys::unix::fs::readdir
FUNC m 8dfb0 d 0 std::sys::unix::os::errno
FUNC m 8dfc0 15f 0 std::sys::unix::os::error_string
FUNC m 8e120 9 0 std::sys::unix::os::exit
FUNC m 8e130 1f 0 std::sys::unix::os_str::Buf::from_string
FUNC m 8e150 e6 0 std::sys::unix::os_str::Buf::into_string
FUNC m 8e240 34 0 std::sys::unix::os_str::Slice::to_str
FUNC m 8e280 18 0 std::sys::unix::os_str::Slice::to_string_lossy
FUNC m 8e2a0 66 0 std::sys::unix::os_str::Slice::to_owned
FUNC m 8e310 242 0 std::sys::unix::rand::hashmap_random_keys
FUNC m 8e560 35a 0 std::sys::unix::stack_overflow::imp::signal_handler
FUNC m 8e8c0 1ba 0 std::sys::unix::stack_overflow::imp::make_handler
FUNC m 8ea80 5c 0 <std::sys::unix::stdio::Stderr as std::io::Write>::write
FUNC m 8eae0 5a 0 <std::sys::unix::stdio::Stderr as std::io::Write>::write_vectored
FUNC m 8eb40 8 0 <std::sys::unix::stdio::Stderr as std::io::Write>::is_write_vectored
FUNC m 8eb50 8 0 <std::sys::unix::stdio::Stderr as std::io::Write>::flush
FUNC m 8eb60 236 0 std::sys::unix::thread::Thread::new
FUNC m 8eda0 c7 0 std::sys::unix::thread::Thread::new::thread_start
FUNC m 8ee70 a 0 std::sys::unix::thread::Thread::set_name
FUNC m 8ee80 90 0 std::sys::unix::thread::Thread::join
FUNC m 8ef10 d 0 <std::sys::unix::thread::Thread as core::ops::drop::Drop>::drop
FUNC m 8ef20 55 0 std::sys::unix::thread::guard::current
FUNC m 8ef80 dd 0 std::sys::unix::thread_local_dtor::register_dtor
FUNC m 8f060 d3 0 std::sys::unix::thread_local_dtor::register_dtor::run_dtors
FUNC m 8f140 24 0 <std::sys::unix::thread_parker::Parker as core::ops::drop::Drop>::drop
FUNC m 8f170 1c 0 std::sys::unix::decode_error_kind
FUNC m 8f190 9 0 std::sys::unix::abort_internal
FUNC m 8f1a0 111 0 <std::sys::unix::locks::pthread_mutex::Mutex as std::sys_common::lazy_box::LazyInit>::init
FUNC m 8f2c0 133 0 std::sys::unix::locks::pthread_mutex::Mutex::init
FUNC m 8f400 b9 0 <std::sys::unix::locks::pthread_condvar::Condvar as std::sys_common::lazy_box::LazyInit>::init
FUNC m 8f4c0 2f 0 std::sys_common::thread_info::THREAD_INFO::__getit::destroy
FUNC m 8f4f0 35 0 std::backtrace_rs::backtrace::libunwind::trace::trace_fn
FUNC m 8f530 d7 0 <std::backtrace_rs::symbolize::SymbolName as core::fmt::Display>::fmt
FUNC m 8f610 dc7 0 std::backtrace_rs::symbolize::gimli::Context::new
FUNC m 903e0 14e 0 std::backtrace_rs::symbolize::gimli::mmap
FUNC m 90530 2a84 0 std::backtrace_rs::symbolize::gimli::resolve
FUNC m 93000 1ac 0 std::backtrace_rs::symbolize::gimli::macho::find_header
FUNC m 931b0 edc 0 std::backtrace_rs::symbolize::gimli::macho::Object::parse
FUNC m 94090 190 0 std::backtrace_rs::symbolize::gimli::macho::Object::section
FUNC m 94220 10 0 core::ops::function::FnOnce::call_once{{vtable.shim}}
FUNC m 94230 10 0 core::ops::function::FnOnce::call_once{{vtable.shim}}
FUNC m 94240 4f 0 core::ptr::drop_in_place<panic_unwind::real_imp::Exception>
FUNC m 94290 70 0 core::ptr::drop_in_place<alloc::boxed::Box<panic_unwind::real_imp::Exception>>
FUNC m 94300 6 0 core::ptr::drop_in_place<panic_unwind::real_imp::find_eh_action::{{closure}}>
FUNC m 94310 14 0 alloc::alloc::box_free
FUNC m 94330 1c 0 alloc::alloc::box_free
FUNC m 94350 180 0 panic_unwind::dwarf::eh::read_encoded_pointer
FUNC m 94520 42 0 __rust_panic_cleanup
FUNC m 94570 c2 0 __rust_start_panic
FUNC m 94640 1f 0 panic_unwind::real_imp::panic::exception_cleanup
FUNC m 94660 10 0 panic_unwind::real_imp::find_eh_action::{{closure}}
FUNC m 94670 10 0 panic_unwind::real_imp::find_eh_action::{{closure}}
FUNC m 94680 2a0 0 rust_eh_personality
PUBLIC 94920 0 <&[u8] as object::read::read_ref::ReadRef>::len
PUBLIC 94930 0 <&[u8] as object::read::read_ref::ReadRef>::read_bytes_at
PUBLIC 94960 0 <&[u8] as object::read::read_ref::ReadRef>::read_bytes_at_until
PUBLIC 949b0 0 object::read::archive::ArchiveMember::file_range
PUBLIC 949c0 0 object::read::archive::parse_u64_digits
PUBLIC 94ae0 0 object::read::archive::parse_sysv_extended_name
PUBLIC 94ba0 0 object::read::ObjectMap::get
FUNC m 94c20 1bd 0 memchr::memchr::x86::sse2::memchr
FUNC m 94de0 1e8 0 memchr::memchr::x86::sse2::memchr2
PUBLIC 94fd0 0 alloc::raw_vec::finish_grow
PUBLIC 95060 0 alloc::raw_vec::RawVec<T,A>::reserve_for_push
PUBLIC 95100 0 <addr2line::LocationRangeUnitIter as core::iter::traits::iterator::Iterator>::next
PUBLIC 95240 0 addr2line::path_push
PUBLIC 953c0 0 <&T as core::fmt::Debug>::fmt
PUBLIC 95410 0 core::ptr::drop_in_place<&alloc::collections::btree::map::BTreeMap<u64,gimli::read::abbrev::Abbreviation>>
PUBLIC 95420 0 core::ptr::drop_in_place<alloc::boxed::Box<alloc::collections::btree::node::LeafNode<u64,gimli::read::abbrev::Abbreviation>>>
PUBLIC 95440 0 core::ptr::drop_in_place<alloc::boxed::Box<alloc::collections::btree::node::InternalNode<u64,gimli::read::abbrev::Abbreviation>>>
PUBLIC 95460 0 core::ptr::drop_in_place<gimli::read::abbrev::Attributes>
PUBLIC 954a0 0 core::ptr::drop_in_place<gimli::read::abbrev::Abbreviation>
PUBLIC 954e0 0 core::ptr::drop_in_place<(u64,gimli::read::abbrev::Abbreviation)>
PUBLIC 95520 0 core::ptr::drop_in_place<alloc::collections::btree::mem::replace::PanicGuard>
PUBLIC 95530 0 core::ptr::drop_in_place<alloc::vec::Vec<gimli::read::abbrev::AttributeSpecification>>
PUBLIC 95560 0 alloc::raw_vec::finish_grow
PUBLIC 955f0 0 alloc::raw_vec::RawVec<T,A>::reserve_for_push
PUBLIC 956b0 0 alloc::raw_vec::RawVec<T,A>::reserve_for_push
PUBLIC 95770 0 gimli::common::SectionId::name
PUBLIC 957a0 0 gimli::read::abbrev::Abbreviations::empty
PUBLIC 957f0 0 gimli::read::abbrev::Abbreviations::insert
PUBLIC 96640 0 gimli::read::abbrev::Abbreviation::new
PUBLIC 966b0 0 gimli::read::abbrev::Attributes::new
PUBLIC 96720 0 gimli::read::abbrev::Attributes::push
PUBLIC 96870 0 <gimli::read::abbrev::Attributes as core::ops::deref::Deref>::deref
PUBLIC 968c0 0 gimli::read::line::LineRow::apply_line_advance
PUBLIC 96900 0 gimli::read::unit::allow_section_offset
FUNC m 96b20 4d7 0 <core::iter::sources::from_fn::FromFn<F> as core::iter::traits::iterator::Iterator>::next
FUNC m 97000 4c 0 <&T as core::fmt::Debug>::fmt
FUNC m 97050 17 0 <&T as core::fmt::Debug>::fmt
FUNC m 97070 61 0 <&T as core::fmt::Display>::fmt
FUNC m 970e0 19 0 <() as core::fmt::Debug>::fmt
FUNC m 97100 6 0 core::ptr::drop_in_place<&mut rustc_demangle::SizeLimitedFmtAdapter<&mut core::fmt::Formatter>>
FUNC m 97110 72 0 <&mut T as core::fmt::Debug>::fmt
FUNC m 97190 dc 0 <&mut W as core::fmt::Write>::write_char
FUNC m 97270 58 0 <&mut W as core::fmt::Write>::write_fmt
FUNC m 972d0 31 0 <&mut W as core::fmt::Write>::write_str
FUNC m 97310 3ac 0 <core::str::pattern::StrSearcher as core::str::pattern::Searcher>::next
FUNC m 976c0 19 0 <core::str::iter::Chars as core::iter::traits::iterator::Iterator>::count
FUNC m 976e0 214 0 <core::str::pattern::CharSearcher as core::str::pattern::Searcher>::next_match
FUNC m 97900 b42 0 <rustc_demangle::legacy::Demangle as core::fmt::Display>::fmt
FUNC m 98450 48b 0 <rustc_demangle::v0::Ident as core::fmt::Display>::fmt
FUNC m 988e0 1a0 0 rustc_demangle::v0::HexNibbles::try_parse_uint
FUNC m 98a80 c0 0 rustc_demangle::v0::Parser::hex_nibbles
FUNC m 98b40 ca 0 rustc_demangle::v0::Parser::integer_62
FUNC m 98c10 d1 0 rustc_demangle::v0::Parser::disambiguator
FUNC m 98cf0 58 0 rustc_demangle::v0::Parser::namespace
FUNC m 98d50 215 0 rustc_demangle::v0::Parser::ident
FUNC m 98f70 55 0 rustc_demangle::v0::Printer::skipping_printing
FUNC m 98fd0 1e8 0 rustc_demangle::v0::Printer::print_backref
FUNC m 991c0 1de 0 rustc_demangle::v0::Printer::print_backref
FUNC m 993a0 1e8 0 rustc_demangle::v0::Printer::print_backref
FUNC m 99590 15b 0 rustc_demangle::v0::Printer::print_quoted_escaped_chars
FUNC m 99790 e6 0 rustc_demangle::v0::Printer::print_lifetime_from_index
FUNC m 99880 2f3 0 rustc_demangle::v0::Printer::in_binder
FUNC m 99b80 201 0 rustc_demangle::v0::Printer::in_binder
FUNC m 99d90 9f 0 rustc_demangle::v0::Printer::print_sep_list
FUNC m 99e30 2e3 0 rustc_demangle::v0::Printer::print_sep_list
FUNC m 9a120 9f 0 rustc_demangle::v0::Printer::print_sep_list
FUNC m 9a1c0 a5 0 rustc_demangle::v0::Printer::print_sep_list
FUNC m 9a270 737 0 rustc_demangle::v0::Printer::print_path
FUNC m 9aa10 173 0 rustc_demangle::v0::Printer::print_generic_arg
FUNC m 9ab90 535 0 rustc_demangle::v0::Printer::print_type
FUNC m 9b120 5f1 0 rustc_demangle::v0::Printer::print_type::{{closure}}
FUNC m 9b720 2fc 0 rustc_demangle::v0::Printer::print_path_maybe_open_generics
FUNC m 9ba20 223 0 rustc_demangle::v0::Printer::print_dyn_trait
FUNC m 9bc50 732 0 rustc_demangle::v0::Printer::print_const
FUNC m 9c470 1e8 0 rustc_demangle::v0::Printer::print_const_uint
FUNC m 9c660 2be 0 rustc_demangle::v0::Printer::print_const_str_literal
FUNC m 9c9c0 c54 0 rustc_demangle::demangle
FUNC m 9d620 6e 0 rustc_demangle::try_demangle
FUNC m 9d690 e 0 rustc_demangle::Demangle::as_str
FUNC m 9d6a0 163 0 <rustc_demangle::Demangle as core::fmt::Display>::fmt
FUNC m 9d810 19 0 <rustc_demangle::SizeLimitExhausted as core::fmt::Debug>::fmt
FUNC m 9d830 4d 0 hashbrown::raw::Fallibility::capacity_overflow
FUNC m 9d880 17 0 hashbrown::raw::Fallibility::alloc_err
FUNC m 9d8a0 a 0 libc::unix::bsd::apple::siginfo_t::si_addr
FUNC m 9d8b0 72 0 <&T as core::fmt::Debug>::fmt
FUNC m 9d930 4c 0 <&T as core::fmt::Debug>::fmt
FUNC m 9d980 4c 0 <&T as core::fmt::Debug>::fmt
FUNC m 9d9d0 9 0 core::intrinsics::const_eval_select
FUNC m 9d9e0 9 0 core::ops::function::FnOnce::call_once
FUNC m 9d9f0 6 0 core::ptr::drop_in_place<&u8>
FUNC m 9da00 1d 0 core::ptr::drop_in_place<alloc::string::String>
FUNC m 9da20 1d 0 core::ptr::drop_in_place<alloc::vec::Vec<u8>>
FUNC m 9da40 10 0 <&mut W as core::fmt::Write>::write_char
FUNC m 9da50 58 0 <&mut W as core::fmt::Write>::write_fmt
FUNC m 9dab0 60 0 <&mut W as core::fmt::Write>::write_str
FUNC m 9db10 93 0 alloc::raw_vec::RawVec<T,A>::reserve_for_push
FUNC m 9dbb0 8d 0 alloc::raw_vec::finish_grow
FUNC m 9dc40 46 0 alloc::raw_vec::capacity_overflow
FUNC m 9dc90 9 0 alloc::alloc::handle_alloc_error::rt_error
FUNC m 9dca0 9 0 __rg_oom
FUNC m 9dcb0 19e 0 <alloc::borrow::Cow<str> as core::ops::arith::AddAssign<&str>>::add_assign
FUNC m 9de50 6 0 <alloc::collections::btree::mem::replace::PanicGuard as core::ops::drop::Drop>::drop
FUNC m 9de60 52 0 alloc::collections::btree::node::splitpoint
FUNC m 9dec0 14a 0 <&str as alloc::ffi::c_str::CString::new::SpecNewImpl>::spec_new_impl
FUNC m 9e010 ed 0 alloc::ffi::c_str::CString::_from_vec_unchecked
FUNC m 9e100 1cd 0 alloc::fmt::format::format_inner
FUNC m 9e2d0 17f 0 alloc::str::<impl str>::repeat
FUNC m 9e450 249 0 alloc::string::String::from_utf8_lossy
FUNC m 9e6a0 10d 0 alloc::string::String::push
FUNC m 9e7b0 1f 0 alloc::string::FromUtf8Error::into_bytes
FUNC m 9e7d0 e 0 <alloc::string::FromUtf8Error as core::fmt::Display>::fmt
FUNC m 9e7e0 67 0 <alloc::string::String as core::clone::Clone>::clone
FUNC m 9e850 7a 0 <alloc::string::String as core::convert::From<alloc::borrow::Cow<str>>>::from
FUNC m 9e8d0 1f 0 alloc::string::<impl core::convert::From<alloc::string::String> for alloc::vec::Vec<u8>>::from
FUNC m 9e8f0 8b 0 alloc::vec::Vec<T,A>::into_boxed_slice
FUNC m 9e980 6d 0 <alloc::ffi::c_str::NulError as core::fmt::Debug>::fmt
FUNC m 9e9f0 9 0 core::ops::function::FnOnce::call_once
FUNC m 9ea00 9 0 core::ops::function::FnOnce::call_once
FUNC m 9ea10 9 0 core::ops::function::FnOnce::call_once
FUNC m 9ea20 9 0 core::ops::function::FnOnce::call_once
FUNC m 9ea30 12 0 core::ops::function::FnOnce::call_once
FUNC m 9ea50 6 0 core::ptr::drop_in_place<&core::iter::adapters::copied::Copied<core::slice::iter::Iter<u8>>>
FUNC m 9ea60 a 0 core::num::dec2flt::common::BiasedFp::zero_pow2
FUNC m 9ea70 d2 0 core::num::dec2flt::decimal::Decimal::round
FUNC m 9eb50 203 0 core::num::dec2flt::decimal::Decimal::left_shift
FUNC m 9ed60 1d6 0 core::num::dec2flt::decimal::Decimal::right_shift
FUNC m 9ef40 32a 0 core::num::dec2flt::decimal::parse_decimal
FUNC m 9f270 27 0 <f64 as core::num::dec2flt::float::RawFloat>::from_u64
FUNC m 9f2a0 b 0 <f64 as core::num::dec2flt::float::RawFloat>::from_u64_bits
FUNC m 9f2b0 15 0 <f64 as core::num::dec2flt::float::RawFloat>::pow10_fast_path
FUNC m 9f2d0 12 0 core::num::dec2flt::lemire::power
FUNC m 9f2f0 7e 0 core::num::dec2flt::lemire::compute_product_approx
FUNC m 9f370 4a1 0 core::num::dec2flt::parse::parse_number
FUNC m 9f820 50 0 core::num::dec2flt::parse::parse_partial_inf_nan::parse_inf_rest
FUNC m 9f870 8 0 core::num::dec2flt::pfe_empty
FUNC m 9f880 8 0 core::num::dec2flt::pfe_invalid
FUNC m 9f890 12 0 core::num::error::TryFromIntError::__description
FUNC m 9f8b0 19 0 <core::num::error::TryFromIntError as core::fmt::Display>::fmt
FUNC m 9f8d0 1f 0 core::num::error::ParseIntError::__description
FUNC m 9f8f0 29 0 <core::num::error::ParseIntError as core::fmt::Display>::fmt
FUNC m 9f920 216 0 core::num::from_str_radix
FUNC m 9fb40 324 0 core::num::from_str_radix
FUNC m 9fe70 9 0 core::intrinsics::const_eval_select
FUNC m 9fe80 9 0 core::intrinsics::const_eval_select
FUNC m 9fe90 1b 0 core::intrinsics::const_eval_select
FUNC m 9feb0 9 0 core::intrinsics::const_eval_select
FUNC m 9fec0 7f 0 <core::ops::range::Range<Idx> as core::fmt::Debug>::fmt
FUNC m 9ff40 10 0 <T as core::any::Any>::type_id
FUNC m 9ff50 4a 0 <dyn core::any::Any+core::marker::Send as core::fmt::Debug>::fmt
FUNC m 9ffa0 1f 0 <core::cell::BorrowMutError as core::fmt::Debug>::fmt
FUNC m 9ffc0 ab 0 <core::char::EscapeDebug as core::iter::traits::iterator::Iterator>::next
FUNC m a00a0 b1 0 core::ffi::c_str::CStr::from_bytes_with_nul
FUNC m a0160 78 0 <core::panic::location::Location as core::fmt::Display>::fmt
FUNC m a01e0 d 0 core::panic::panic_info::PanicInfo::payload
FUNC m a01f0 a 0 core::panic::panic_info::PanicInfo::message
FUNC m a0200 a 0 core::panic::panic_info::PanicInfo::location
FUNC m a0210 9 0 core::panic::panic_info::PanicInfo::can_unwind
FUNC m a0220 15c 0 <core::panic::panic_info::PanicInfo as core::fmt::Display>::fmt
FUNC m a0380 1c 0 core::panicking::panic_str
FUNC m a03a0 4b 0 core::panicking::panic_display
FUNC m a03f0 1b2 0 core::panicking::assert_failed_inner
FUNC m a05b0 25f 0 <core::fmt::builders::PadAdapter as core::fmt::Write>::write_str
FUNC m a0810 1b0 0 core::fmt::builders::DebugStruct::field
FUNC m a09c0 b8 0 core::fmt::builders::DebugStruct::finish_non_exhaustive
FUNC m a0a80 58 0 core::fmt::builders::DebugStruct::finish
FUNC m a0ae0 152 0 core::fmt::builders::DebugTuple::field
FUNC m a0c40 7b 0 core::fmt::builders::DebugTuple::finish
FUNC m a0cc0 123 0 core::fmt::builders::DebugInner::entry
FUNC m a0df0 18 0 core::fmt::builders::DebugSet::entry
FUNC m a0e10 2c 0 core::fmt::builders::DebugList::finish
FUNC m a0e40 b9 0 core::fmt::Write::write_char
FUNC m a0f00 55 0 core::fmt::Write::write_fmt
FUNC m a0f60 d 0 <&mut W as core::fmt::Write>::write_str
FUNC m a0f70 bc 0 <&mut W as core::fmt::Write>::write_char
FUNC m a1030 58 0 <&mut W as core::fmt::Write>::write_fmt
FUNC m a1090 32 0 core::fmt::Formatter::new
FUNC m a10d0 10 0 core::fmt::ArgumentV1::from_usize
FUNC m a10e0 51 0 <core::fmt::Arguments as core::fmt::Display>::fmt
FUNC m a1140 212 0 core::fmt::write
FUNC m a1360 4bd 0 core::fmt::Formatter::pad_integral
FUNC m a1820 5e 0 core::fmt::Formatter::pad_integral::write_prefix
FUNC m a1880 3d9 0 core::fmt::Formatter::pad
FUNC m a1c60 16 0 core::fmt::Formatter::write_str
FUNC m a1c80 54 0 core::fmt::Formatter::write_fmt
FUNC m a1ce0 e 0 core::fmt::Formatter::alternate
FUNC m a1cf0 e 0 core::fmt::Formatter::debug_lower_hex
FUNC m a1d00 e 0 core::fmt::Formatter::debug_upper_hex
FUNC m a1d10 30 0 core::fmt::Formatter::debug_struct
FUNC m a1d40 47 0 core::fmt::Formatter::debug_tuple
FUNC m a1d90 36 0 core::fmt::Formatter::debug_list
FUNC m a1dd0 16 0 <core::fmt::Formatter as core::fmt::Write>::write_char
FUNC m a1df0 3fc 0 <str as core::fmt::Debug>::fmt
FUNC m a22a0 16 0 <str as core::fmt::Display>::fmt
FUNC m a22c0 2c6 0 <char as core::fmt::Debug>::fmt
FUNC m a2650 d6 0 <char as core::fmt::Display>::fmt
FUNC m a2730 da 0 core::fmt::pointer_fmt_inner
FUNC m a2810 10b 0 core::slice::memchr::memchr_general_case
FUNC m a2920 11b 0 core::slice::memchr::memrchr
FUNC m a2a40 6a 0 core::slice::index::slice_start_index_len_fail_rt
FUNC m a2ab0 6a 0 core::slice::index::slice_end_index_len_fail_rt
FUNC m a2b20 6a 0 core::slice::index::slice_index_order_fail_rt
FUNC m a2b90 215 0 core::str::converts::from_utf8
FUNC m a2db0 806 0 core::str::count::do_count_chars
FUNC m a35c0 17f 0 core::str::count::char_count_general_case
FUNC m a3740 bc 0 <core::str::error::Utf8Error as core::fmt::Display>::fmt
FUNC m a3800 531 0 core::str::pattern::StrSearcher::new
FUNC m a3d40 c 0 core::str::lossy::Utf8Lossy::from_bytes
FUNC m a3d50 c 0 core::str::lossy::Utf8Lossy::chunks
FUNC m a3d60 1bf 0 <core::str::lossy::Utf8LossyChunksIter as core::iter::traits::iterator::Iterator>::next
FUNC m a3f20 fc 0 <core::str::lossy::Utf8Lossy as core::fmt::Display>::fmt
FUNC m a4020 430 0 core::str::slice_error_fail_rt
FUNC m a4450 114 0 core::unicode::printable::check
FUNC m a4570 113 0 core::unicode::printable::is_printable
FUNC m a4690 bb 0 <core::num::error::TryFromIntError as core::fmt::Debug>::fmt
FUNC m a4750 a6 0 <core::num::error::ParseIntError as core::fmt::Debug>::fmt
FUNC m a4800 1e 0 <core::num::nonzero::NonZeroUsize as core::fmt::Debug>::fmt
FUNC m a4820 a 0 core::num::<impl u32>::from_str_radix
FUNC m a4830 1d 0 core::num::<impl core::str::traits::FromStr for i64>::from_str
FUNC m a4850 c2 0 core::num::<impl core::str::traits::FromStr for u64>::from_str
FUNC m a4920 a6 0 <core::any::TypeId as core::fmt::Debug>::fmt
FUNC m a49d0 83 0 core::fmt::num::<impl core::fmt::LowerHex for i8>::fmt
FUNC m a4a60 83 0 core::fmt::num::<impl core::fmt::UpperHex for u8>::fmt
FUNC m a4af0 85 0 core::fmt::num::<impl core::fmt::LowerHex for i32>::fmt
FUNC m a4b80 85 0 core::fmt::num::<impl core::fmt::UpperHex for i32>::fmt
FUNC m a4c10 88 0 core::fmt::num::<impl core::fmt::LowerHex for usize>::fmt
FUNC m a4ca0 88 0 core::fmt::num::<impl core::fmt::UpperHex for u64>::fmt
FUNC m a4d30 165 0 core::fmt::num::<impl core::fmt::Debug for u8>::fmt
FUNC m a4ea0 20b 0 core::fmt::num::<impl core::fmt::Debug for u32>::fmt
FUNC m a50b0 21e 0 core::fmt::num::<impl core::fmt::Debug for u64>::fmt
FUNC m a52d0 21e 0 core::fmt::num::<impl core::fmt::Debug for usize>::fmt
FUNC m a54f0 8c 0 core::fmt::num::imp::<impl core::fmt::Display for u8>::fmt
FUNC m a5580 133 0 core::fmt::num::imp::<impl core::fmt::Display for i32>::fmt
FUNC m a56c0 122 0 core::fmt::num::imp::<impl core::fmt::Display for u32>::fmt
FUNC m a57f0 136 0 core::fmt::num::imp::<impl core::fmt::Display for i64>::fmt
FUNC m a5930 122 0 core::fmt::num::imp::<impl core::fmt::Display for u64>::fmt
FUNC m a5a60 1f 0 <core::fmt::Error as core::fmt::Debug>::fmt
FUNC m a5a80 d 0 <&T as core::fmt::Debug>::fmt
FUNC m a5a90 19 0 <&T as core::fmt::Debug>::fmt
FUNC m a5ab0 81 0 <&T as core::fmt::Debug>::fmt
FUNC m a5b40 d 0 <&T as core::fmt::Debug>::fmt
FUNC m a5b50 a1 0 <&T as core::fmt::Debug>::fmt
FUNC m a5c10 d 0 <&T as core::fmt::Debug>::fmt
FUNC m a5c20 e9 0 <&T as core::fmt::Debug>::fmt
FUNC m a5d10 15 0 <&T as core::fmt::Debug>::fmt
FUNC m a5d30 1a 0 <&T as core::fmt::Display>::fmt
FUNC m a5d50 17 0 <&T as core::fmt::Display>::fmt
FUNC m a5d70 51 0 <&T as core::fmt::Display>::fmt
FUNC m a5dd0 d4 0 <core::str::error::Utf8Error as core::fmt::Debug>::fmt
FUNC m a5eb0 11b 0 core::unicode::unicode_data::alphabetic::lookup
FUNC m a5fd0 17 0 core::unicode::unicode_data::cc::lookup
FUNC m a5ff0 11b 0 core::unicode::unicode_data::grapheme_extend::lookup
FUNC m a6110 11b 0 core::unicode::unicode_data::n::lookup
FUNC m a6230 11b 0 core::unicode::unicode_data::white_space::lookup
FUNC m a6350 d4 0 <core::alloc::layout::Layout as core::fmt::Debug>::fmt
PUBLIC a6430 0 __rust_probestack
FUNC m a6470 b4 0 <alloc::raw_vec::RawVec<_, _>>::reserve::do_reserve_and_handle::<std::ffi::os_str::OsString, alloc::alloc::Global>
FUNC m a6530 b4 0 <alloc::raw_vec::RawVec<_, _>>::reserve::do_reserve_and_handle::<clap::builder::possible_value::PossibleValue, alloc::alloc::Global>
FUNC m a65f0 92 0 anyhow::private::format_err
FUNC m a6690 f6 0 <anyhow::Error>::msg::<alloc::string::String>
FUNC m a6790 6a 0 <anyhow::Error>::msg::<&str>
FUNC m a6800 b6 0 <anyhow::Error>::construct::<anyhow::wrapper::MessageError<alloc::string::String>>
FUNC m a68c0 a7 0 <anyhow::Error>::construct::<anyhow::wrapper::MessageError<&str>>
FUNC m a6970 5e 0 core::panicking::assert_failed::<i32, i32>
FUNC m a69d0 5db 0 <parking_lot::raw_rwlock::RawRwLock>::lock_exclusive_slow
FUNC m a6fb0 552 0 <parking_lot::raw_rwlock::RawRwLock>::unlock_exclusive_slow
FUNC m a7510 622 0 <parking_lot::raw_rwlock::RawRwLock>::lock_shared_slow
FUNC m a7b40 295 0 <parking_lot::raw_rwlock::RawRwLock>::unlock_shared_slow
FUNC m a7de0 3b1 0 <parking_lot::condvar::Condvar>::notify_one_slow
FUNC m a81a0 677 0 <parking_lot::raw_mutex::RawMutex>::lock_slow
FUNC m a8820 2a9 0 <parking_lot::raw_mutex::RawMutex>::unlock_slow
FUNC m a8ad0 1d 0 std::panicking::begin_panic::<&str>
FUNC m a8af0 330 0 <parking_lot_core::word_lock::WordLock>::lock_slow
FUNC m a8e20 fc 0 <parking_lot_core::word_lock::WordLock>::unlock_slow
FUNC m a8f20 5d 0 parking_lot_core::parking_lot::create_hashtable
FUNC m a8f80 93 0 <alloc::raw_vec::RawVec<_, _>>::reserve::do_reserve_and_handle::<u8, alloc::alloc::Global>
FUNC m a9020 5e 0 core::panicking::assert_failed::<i32, i32>
FUNC m a9080 56 0 <std::sys_common::lazy_box::LazyBox<std::sys::unix::locks::pthread_mutex::Mutex>>::initialize
FUNC m a90e0 56 0 <std::sys_common::lazy_box::LazyBox<std::sys::unix::locks::pthread_condvar::Condvar>>::initialize
FUNC m a9140 b4 0 <alloc::raw_vec::RawVec<_, _>>::reserve::do_reserve_and_handle::<alloc::borrow::Cow<str>, alloc::alloc::Global>
FUNC m a9200 b4 0 <alloc::raw_vec::RawVec<_, _>>::reserve::do_reserve_and_handle::<std::ffi::os_str::OsString, alloc::alloc::Global>
FUNC m a92c0 b4 0 <alloc::raw_vec::RawVec<_, _>>::reserve::do_reserve_and_handle::<textwrap::core::Word, alloc::alloc::Global>
FUNC m a9380 b2 0 <alloc::raw_vec::RawVec<_, _>>::reserve::do_reserve_and_handle::<&clap::builder::arg::Arg, alloc::alloc::Global>
FUNC m a9440 b4 0 <alloc::raw_vec::RawVec<_, _>>::reserve::do_reserve_and_handle::<clap::builder::possible_value::PossibleValue, alloc::alloc::Global>
FUNC m a9500 b4 0 <alloc::raw_vec::RawVec<_, _>>::reserve::do_reserve_and_handle::<&str, alloc::alloc::Global>
FUNC m a95c0 b4 0 <alloc::raw_vec::RawVec<_, _>>::reserve::do_reserve_and_handle::<(clap::error::context::ContextKind, clap::error::context::ContextValue), alloc::alloc::Global>
FUNC m a9680 b4 0 <alloc::raw_vec::RawVec<_, _>>::reserve::do_reserve_and_handle::<(f64, alloc::string::String), alloc::alloc::Global>
FUNC m a9740 b4 0 <alloc::raw_vec::RawVec<_, _>>::reserve::do_reserve_and_handle::<(usize, &clap::builder::arg::Arg), alloc::alloc::Global>
FUNC m a9800 93 0 <alloc::raw_vec::RawVec<_, _>>::reserve::do_reserve_and_handle::<u8, alloc::alloc::Global>
FUNC m a98a0 6bd 0 <hashbrown::raw::inner::RawTable<usize>>::reserve_rehash::<indexmap::map::core::get_hash<alloc::string::String, ()>::{closure#0}>
FUNC m a9f60 6c0 0 <hashbrown::raw::inner::RawTable<usize>>::reserve_rehash::<indexmap::map::core::get_hash<clap::util::id::Id, clap::parser::matches::matched_arg::MatchedArg>::{closure#0}>
FUNC m aa620 6c0 0 <hashbrown::raw::inner::RawTable<usize>>::reserve_rehash::<indexmap::map::core::get_hash<clap::util::id::Id, ()>::{closure#0}>
FUNC m aace0 6bd 0 <hashbrown::raw::inner::RawTable<usize>>::reserve_rehash::<indexmap::map::core::get_hash<&str, ()>::{closure#0}>
FUNC m ab3a0 5e 0 core::panicking::assert_failed::<clap::builder::arg::ArgProvider, clap::builder::arg::ArgProvider>
FUNC m ab400 56 0 <std::sys_common::lazy_box::LazyBox<std::sys::unix::locks::pthread_mutex::Mutex>>::initialize
FUNC m ab460 779 0 <hashbrown::raw::RawTable<(clap::util::id::Id, alloc::vec::Vec<clap::util::id::Id>)>>::reserve_rehash::<hashbrown::map::make_hasher<clap::util::id::Id, clap::util::id::Id, alloc::vec::Vec<clap::util::id::Id>, std::collections::hash::map::RandomState>::{closure#0}>
FUNC m abbe0 639 0 <hashbrown::raw::RawTable<(clap::util::id::Id, clap::parser::matches::matched_arg::MatchedArg)>>::reserve_rehash::<hashbrown::map::make_hasher<clap::util::id::Id, clap::util::id::Id, clap::parser::matches::matched_arg::MatchedArg, std::collections::hash::map::RandomState>::{closure#0}>
FUNC m ac220 63f 0 <hashbrown::raw::RawTable<(clap::util::id::Id, ())>>::reserve_rehash::<hashbrown::map::make_hasher<clap::util::id::Id, clap::util::id::Id, (), std::collections::hash::map::RandomState>::{closure#0}>
FUNC m ac860 1d 0 std::panicking::begin_panic::<&str>
FUNC m ac880 b4 0 <alloc::raw_vec::RawVec<_, _>>::reserve::do_reserve_and_handle::<std::ffi::os_str::OsString, alloc::alloc::Global>
FUNC m ac940 25d 0 core::slice::sort::break_patterns
FUNC m acba0 315 0 core::slice::sort::break_patterns
FUNC m acec0 35c 0 core::slice::sort::partial_insertion_sort
FUNC m ad220 376 0 core::slice::sort::partial_insertion_sort
FUNC m ad5a0 3dc 0 core::slice::sort::partial_insertion_sort
FUNC m ad980 111 0 core::slice::sort::heapsort
FUNC m adaa0 2ce 0 core::slice::sort::heapsort
FUNC m add70 34b 0 core::slice::sort::heapsort
FUNC m ae0c0 67 0 core::panicking::assert_failed
FUNC m ae130 5e 0 core::panicking::assert_failed
FUNC m ae190 b4 0 alloc::raw_vec::RawVec<T,A>::reserve::do_reserve_and_handle
FUNC m ae250 93 0 alloc::raw_vec::RawVec<T,A>::reserve::do_reserve_and_handle
FUNC m ae2f0 b4 0 alloc::raw_vec::RawVec<T,A>::reserve::do_reserve_and_handle
FUNC m ae3b0 b4 0 alloc::raw_vec::RawVec<T,A>::reserve::do_reserve_and_handle
FUNC m ae470 b4 0 alloc::raw_vec::RawVec<T,A>::reserve::do_reserve_and_handle
FUNC m ae530 fa 0 std::io::buffered::bufwriter::BufWriter<W>::write_cold
FUNC m ae630 b0 0 std::io::buffered::bufwriter::BufWriter<W>::write_all_cold
FUNC m ae6e0 9 0 std::process::abort
FUNC m ae6f0 3d4 0 std::sync::once::Once::call_inner
FUNC m aead0 5f 0 std::sync::once_lock::OnceLock<T>::initialize
FUNC m aeb30 146 0 std::sys_common::lazy_box::LazyBox<T>::initialize
FUNC m aec80 f9 0 std::sys_common::lazy_box::LazyBox<T>::initialize
FUNC m aed80 16 0 std::panicking::panic_count::is_zero_slow_path
FUNC m aeda0 25 0 std::panicking::try::cleanup
FUNC m aedd0 54 0 std::sys::unix::weak::DlsymWeak<F>::initialize
PUBLIC aee30 0 alloc::raw_vec::RawVec<T,A>::reserve::do_reserve_and_handle
PUBLIC aeed0 0 core::panicking::assert_failed
FUNC m aef50 93 0 alloc::raw_vec::RawVec<T,A>::reserve::do_reserve_and_handle
FUNC m aeff0 9 0 alloc::alloc::handle_alloc_error
FUNC m af000 6a 0 alloc::vec::Vec<T,A>::swap_remove::assert_failed
FUNC m af070 66 0 alloc::vec::Vec<T,A>::remove::assert_failed
FUNC m af0e0 9 0 core::option::expect_failed
FUNC m af0f0 47 0 core::panicking::panic
FUNC m af140 66 0 core::panicking::panic_bounds_check
FUNC m af1b0 6c 0 core::panicking::panic_no_unwind
FUNC m af220 33 0 core::panicking::panic_fmt
FUNC m af260 75 0 core::result::unwrap_failed
FUNC m af2e0 9 0 core::slice::index::slice_start_index_len_fail
FUNC m af2f0 9 0 core::slice::index::slice_end_index_len_fail
FUNC m af300 9 0 core::slice::index::slice_index_order_fail
FUNC m af310 42 0 core::slice::index::slice_start_index_overflow_fail
FUNC m af360 42 0 core::slice::index::slice_end_index_overflow_fail
FUNC m af3b0 42 0 core::str::traits::str_index_overflow_fail
FUNC m af400 21 0 core::str::slice_error_fail
STACK CFI INIT dd0 150 .cfa: $rbp 16 + $rbp: .cfa -16 + ^ .ra: .cfa -8 + ^ $rbx: .cfa -40 + ^ $r14: .cfa -32 + ^ $r15: .cfa -24 + ^
STACK CFI INIT f20 c0 .cfa: $rbp 16 + $rbp: .cfa -16 + ^ .ra: .cfa -8 + ^
STACK CFI INIT fe0 60 .cfa: $rbp 16 + $rbp: .cfa -16 + ^ .ra: .cfa -8 + ^ $rbx: .cfa -32 + ^ $r14: .cfa -24 + ^
STACK CFI INIT 1040 70 .cfa: $rbp 16 + $rbp: .cfa -16 + ^ .ra: .cfa -8 + ^ $rbx: .cfa -32 + ^ $r14: .cfa -24 + ^
STACK CFI INIT 10b0 b0 .cfa: $rbp 16 + $rbp: .cfa -16 + ^ .ra: .cfa -8 + ^ $rbx: .cfa -48 + ^ $r12: .cfa -40 + ^ $r14: .cfa -32 + ^ $r15: .cfa -24 + ^
STACK CFI INIT 1160 30 .cfa: $rbp 16 + $rbp: .cfa -16 + ^ .ra: .cfa -8 + ^
STACK CFI INIT 1190 50 .cfa: $rbp 16 + $rbp: .cfa -16 + ^ .ra: .cfa -8 + ^ $rbx: .cfa -32 + ^ $r14: .cfa -24 + ^
STACK CFI INIT 11e0 120 .cfa: $rbp 16 + $rbp: .cfa -16 + ^ .ra: .cfa -8 + ^ $rbx: .cfa -48 + ^ $r12: .cfa -40 + ^ $r14: .cfa -32 + ^ $r15: .cfa -24 + ^
STACK CFI INIT 1300 30 .cfa: $rbp 16 + $rbp: .cfa -16 + ^ .ra: .cfa -8 + ^
STACK CFI INIT 1330 a0 .cfa: $rbp 16 + $rbp: .cfa -16 + ^ .ra: .cfa -8 + ^ $rbx: .cfa -56 + ^ $r12: .cfa -48 + ^ $r13: .cfa -40 + ^ $r14: .cfa -32 + ^ $r15: .cfa -24 + ^
STACK CFI INIT 13d0 c0 .cfa: $rbp 16 + $rbp: .cfa -16 + ^ .ra: .cfa -8 + ^ $rbx: .cfa -56 + ^ $r12: .cfa -48 + ^ $r13: .cfa -40 + ^ $r14: .cfa -32 + ^ $r15: .cfa -24 + ^
STACK CFI INIT 1490 e0 .cfa: $rbp 16 + $rbp: .cfa -16 + ^ .ra: .cfa -8 + ^ $rbx: .cfa -56 + ^ $r12: .cfa -48 + ^ $r13: .cfa -40 + ^ $r14: .cfa -32 + ^ $r15: .cfa -24 + ^
STACK CFI INIT 1570 e0 .cfa: $rbp 16 + $rbp: .cfa -16 + ^ .ra: .cfa -8 + ^
STACK CFI INIT 1650 50 .cfa: $rbp 16 + $rbp: .cfa -16 + ^ .ra: .cfa -8 + ^ $rbx: .cfa -32 + ^ $r14: .cfa -24 + ^
STACK CFI INIT 16a0 50 .cfa: $rbp 16 + $rbp: .cfa -16 + ^ .ra: .cfa -8 + ^ $rbx: .cfa -32 + ^ $r14: .cfa -24 + ^
STACK CFI INIT 16f0 f0 .cfa: $rbp 16 + $rbp: .cfa -16 + ^ .ra: .cfa -8 + ^
STACK CFI INIT 17e0 70 .cfa: $rbp 16 + $rbp: .cfa -16 + ^ .ra: .cfa -8 + ^ $rbx: .cfa -32 + ^ $r14: .cfa -24 + ^
STACK CFI INIT 1850 b0 .cfa: $rbp 16 + $rbp: .cfa -16 + ^ .ra: .cfa -8 + ^
STACK CFI INIT 1900 a0 .cfa: $rbp 16 + $rbp: .cfa -16 + ^ .ra: .cfa -8 + ^ $rbx: .cfa -48 + ^ $r12: .cfa -40 + ^ $r14: .cfa -32 + ^ $r15: .cfa -24 + ^
STACK CFI INIT 19a0 20 .cfa: $rbp 16 + $rbp: .cfa -16 + ^ .ra: .cfa -8 + ^
STACK CFI INIT 19c0 1f0 .cfa: $rbp 16 + $rbp: .cfa -16 + ^ .ra: .cfa -8 + ^ $rbx: .cfa -56 + ^ $r12: .cfa -48 + ^ $r13: .cfa -40 + ^ $r14: .cfa -32 + ^ $r15: .cfa -24 + ^
STACK CFI INIT 1bb0 140 .cfa: $rbp 16 + $rbp: .cfa -16 + ^ .ra: .cfa -8 + ^ $rbx: .cfa -56 + ^ $r12: .cfa -48 + ^ $r13: .cfa -40 + ^ $r14: .cfa -32 + ^ $r15: .cfa -24 + ^
STACK CFI INIT 1cf0 130 .cfa: $rbp 16 + $rbp: .cfa -16 + ^ .ra: .cfa -8 + ^
STACK CFI INIT 1e20 90 .cfa: $rbp 16 + $rbp: .cfa -16 + ^ .ra: .cfa -8 + ^ $rbx: .cfa -40 + ^ $r14: .cfa -32 + ^ $r15: .cfa -24 + ^
STACK CFI INIT 1eb0 430 .cfa: $rbp 16 + $rbp: .cfa -16 + ^ .ra: .cfa -8 + ^ $rbx: .cfa -56 + ^ $r12: .cfa -48 + ^ $r13: .cfa -40 + ^ $r14: .cfa -32 + ^ $r15: .cfa -24 + ^
STACK CFI INIT 22e0 300 .cfa: $rbp 16 + $rbp: .cfa -16 + ^ .ra: .cfa -8 + ^ $rbx: .cfa -56 + ^ $r12: .cfa -48 + ^ $r13: .cfa -40 + ^ $r14: .cfa -32 + ^ $r15: .cfa -24 + ^
STACK CFI INIT 25e0 160 .cfa: $rbp 16 + $rbp: .cfa -16 + ^ .ra: .cfa -8 + ^ $rbx: .cfa -56 + ^ $r12: .cfa -48 + ^ $r13: .cfa -40 + ^ $r14: .cfa -32 + ^ $r15: .cfa -24 + ^
STACK CFI INIT 2740 30 .cfa: $rbp 16 + $rbp: .cfa -16 + ^ .ra: .cfa -8 + ^
STACK CFI INIT 2770 c70 .cfa: $rbp 16 + $rbp: .cfa -16 + ^ .ra: .cfa -8 + ^ $rbx: .cfa -56 + ^ $r12: .cfa -48 + ^ $r13: .cfa -40 + ^ $r14: .cfa -32 + ^ $r15: .cfa -24 + ^
STACK CFI INIT 33e0 20 .cfa: $rbp 16 + $rbp: .cfa -16 + ^ .ra: .cfa -8 + ^
STACK CFI INIT 3400 ff0 .cfa: $rbp 16 + $rbp: .cfa -16 + ^ .ra: .cfa -8 + ^ $rbx: .cfa -56 + ^ $r12: .cfa -48 + ^ $r13: .cfa -40 + ^ $r14: .cfa -32 + ^ $r15: .cfa -24 + ^
STACK CFI INIT 43f0 30 .cfa: $rbp 16 + $rbp: .cfa -16 + ^ .ra: .cfa -8 + ^
STACK CFI INIT 4420 420 .cfa: $rbp 16 + $rbp: .cfa -16 + ^ .ra: .cfa -8 + ^ $rbx: .cfa -56 + ^ $r12: .cfa -48 + ^ $r13: .cfa -40 + ^ $r14: .cfa -32 + ^ $r15: .cfa -24 + ^
STACK CFI INIT 4840 120 .cfa: $rbp 16 + $rbp: .cfa -16 + ^ .ra: .cfa -8 + ^ $rbx: .cfa -48 + ^ $r12: .cfa -40 + ^ $r14: .cfa -32 + ^ $r15: .cfa -24 + ^
STACK CFI INIT 4960 80 .cfa: $rbp 16 + $rbp: .cfa -16 + ^ .ra: .cfa -8 + ^
STACK CFI INIT 49e0 60 .cfa: $rbp 16 + $rbp: .cfa -16 + ^ .ra: .cfa -8 + ^ $rbx: .cfa -32 + ^ $r14: .cfa -24 + ^
STACK CFI INIT 4a40 1d0 .cfa: $rbp 16 + $rbp: .cfa -16 + ^ .ra: .cfa -8 + ^ $rbx: .cfa -48 + ^ $r12: .cfa -40 + ^ $r14: .cfa -32 + ^ $r15: .cfa -24 + ^
STACK CFI INIT 4c10 30 .cfa: $rbp 16 + $rbp: .cfa -16 + ^ .ra: .cfa -8 + ^
STACK CFI INIT 4c40 a0 .cfa: $rbp 16 + $rbp: .cfa -16 + ^ .ra: .cfa -8 + ^ $rbx: .cfa -56 + ^ $r12: .cfa -48 + ^ $r13: .cfa -40 + ^ $r14: .cfa -32 + ^ $r15: .cfa -24 + ^
STACK CFI INIT 4ce0 c0 .cfa: $rbp 16 + $rbp: .cfa -16 + ^ .ra: .cfa -8 + ^ $rbx: .cfa -56 + ^ $r12: .cfa -48 + ^ $r13: .cfa -40 + ^ $r14: .cfa -32 + ^ $r15: .cfa -24 + ^
STACK CFI INIT 4da0 e0 .cfa: $rbp 16 + $rbp: .cfa -16 + ^ .ra: .cfa -8 + ^ $rbx: .cfa -56 + ^ $r12: .cfa -48 + ^ $r13: .cfa -40 + ^ $r14: .cfa -32 + ^ $r15: .cfa -24 + ^
STACK CFI INIT 4e80 190 .cfa: $rbp 16 + $rbp: .cfa -16 + ^ .ra: .cfa -8 + ^
STACK CFI INIT 5010 90 .cfa: $rbp 16 + $rbp: .cfa -16 + ^ .ra: .cfa -8 + ^ $rbx: .cfa -48 + ^ $r12: .cfa -40 + ^ $r14: .cfa -32 + ^ $r15: .cfa -24 + ^
STACK CFI INIT 50a0 20 .cfa: $rbp 16 + $rbp: .cfa -16 + ^ .ra: .cfa -8 + ^
STACK CFI INIT 50c0 1f0 .cfa: $rbp 16 + $rbp: .cfa -16 + ^ .ra: .cfa -8 + ^ $rbx: .cfa -56 + ^ $r12: .cfa -48 + ^ $r13: .cfa -40 + ^ $r14: .cfa -32 + ^ $r15: .cfa -24 + ^
STACK CFI INIT 52b0 140 .cfa: $rbp 16 + $rbp: .cfa -16 + ^ .ra: .cfa -8 + ^ $rbx: .cfa -56 + ^ $r12: .cfa -48 + ^ $r13: .cfa -40 + ^ $r14: .cfa -32 + ^ $r15: .cfa -24 + ^
STACK CFI INIT 53f0 430 .cfa: $rbp 16 + $rbp: .cfa -16 + ^ .ra: .cfa -8 + ^ $rbx: .cfa -56 + ^ $r12: .cfa -48 + ^ $r13: .cfa -40 + ^ $r14: .cfa -32 + ^ $r15: .cfa -24 + ^
STACK CFI INIT 5820 300 .cfa: $rbp 16 + $rbp: .cfa -16 + ^ .ra: .cfa -8 + ^ $rbx: .cfa -56 + ^ $r12: .cfa -48 + ^ $r13: .cfa -40 + ^ $r14: .cfa -32 + ^ $r15: .cfa -24 + ^
STACK CFI INIT 5b20 50 .cfa: $rbp 16 + $rbp: .cfa -16 + ^ .ra: .cfa -8 + ^
STACK CFI INIT 5b70 90 .cfa: $rbp 16 + $rbp: .cfa -16 + ^ .ra: .cfa -8 + ^ $rbx: .cfa -40 + ^ $r14: .cfa -32 + ^ $r15: .cfa -24 + ^
STACK CFI INIT 5c00 20 .cfa: $rbp 16 + $rbp: .cfa -16 + ^ .ra: .cfa -8 + ^
STACK CFI INIT 5c20 160 .cfa: $rbp 16 + $rbp: .cfa -16 + ^ .ra: .cfa -8 + ^ $rbx: .cfa -24 + ^
STACK CFI INIT 5d80 20 .cfa: $rbp 16 + $rbp: .cfa -16 + ^ .ra: .cfa -8 + ^
STACK CFI INIT 5da0 80 .cfa: $rbp 16 + $rbp: .cfa -16 + ^ .ra: .cfa -8 + ^ $rbx: .cfa -48 + ^ $r12: .cfa -40 + ^ $r14: .cfa -32 + ^ $r15: .cfa -24 + ^
STACK CFI INIT 5e20 200 .cfa: $rbp 16 + $rbp: .cfa -16 + ^ .ra: .cfa -8 + ^ $rbx: .cfa -56 + ^ $r12: .cfa -48 + ^ $r13: .cfa -40 + ^ $r14: .cfa -32 + ^ $r15: .cfa -24 + ^
STACK CFI INIT 6020 d0 .cfa: $rbp 16 + $rbp: .cfa -16 + ^ .ra: .cfa -8 + ^
STACK CFI INIT 60f0 100 .cfa: $rbp 16 + $rbp: .cfa -16 + ^ .ra: .cfa -8 + ^ $rbx: .cfa -24 + ^
STACK CFI INIT 61f0 390 .cfa: $rbp 16 + $rbp: .cfa -16 + ^ .ra: .cfa -8 + ^
STACK CFI INIT 6580 200 .cfa: $rbp 16 + $rbp: .cfa -16 + ^ .ra: .cfa -8 + ^ $rbx: .cfa -56 + ^ $r12: .cfa -48 + ^ $r13: .cfa -40 + ^ $r14: .cfa -32 + ^ $r15: .cfa -24 + ^
STACK CFI INIT 6780 30 .cfa: $rbp 16 + $rbp: .cfa -16 + ^ .ra: .cfa -8 + ^
STACK CFI INIT 67b0 100 .cfa: $rbp 16 + $rbp: .cfa -16 + ^ .ra: .cfa -8 + ^ $rbx: .cfa -56 + ^ $r12: .cfa -48 + ^ $r13: .cfa -40 + ^ $r14: .cfa -32 + ^ $r15: .cfa -24 + ^
STACK CFI INIT 68b0 c0 .cfa: $rbp 16 + $rbp: .cfa -16 + ^ .ra: .cfa -8 + ^ $rbx: .cfa -56 + ^ $r12: .cfa -48 + ^ $r13: .cfa -40 + ^ $r14: .cfa -32 + ^ $r15: .cfa -24 + ^
STACK CFI INIT 6970 40 .cfa: $rbp 16 + $rbp: .cfa -16 + ^ .ra: .cfa -8 + ^
STACK CFI INIT 69b0 210 .cfa: $rbp 16 + $rbp: .cfa -16 + ^ .ra: .cfa -8 + ^ $rbx: .cfa -56 + ^ $r12: .cfa -48 + ^ $r13: .cfa -40 + ^ $r14: .cfa -32 + ^ $r15: .cfa -24 + ^
STACK CFI INIT 6bc0 40 .cfa: $rbp 16 + $rbp: .cfa -16 + ^ .ra: .cfa -8 + ^
STACK CFI INIT 6c00 60 .cfa: $rbp 16 + $rbp: .cfa -16 + ^ .ra: .cfa -8 + ^ $rbx: .cfa -32 + ^ $r14: .cfa -24 + ^
STACK CFI INIT 6c60 1d0 .cfa: $rbp 16 + $rbp: .cfa -16 + ^ .ra: .cfa -8 + ^ $rbx: .cfa -48 + ^ $r12: .cfa -40 + ^ $r14: .cfa -32 + ^ $r15: .cfa -24 + ^
STACK CFI INIT 6e30 c0 .cfa: $rbp 16 + $rbp: .cfa -16 + ^ .ra: .cfa -8 + ^ $rbx: .cfa -56 + ^ $r12: .cfa -48 + ^ $r13: .cfa -40 + ^ $r14: .cfa -32 + ^ $r15: .cfa -24 + ^
STACK CFI INIT 6ef0 e0 .cfa: $rbp 16 + $rbp: .cfa -16 + ^ .ra: .cfa -8 + ^ $rbx: .cfa -56 + ^ $r12: .cfa -48 + ^ $r13: .cfa -40 + ^ $r14: .cfa -32 + ^ $r15: .cfa -24 + ^
STACK CFI INIT 6fd0 f0 .cfa: $rbp 16 + $rbp: .cfa -16 + ^ .ra: .cfa -8 + ^
STACK CFI INIT 70c0 1f0 .cfa: $rbp 16 + $rbp: .cfa -16 + ^ .ra: .cfa -8 + ^ $rbx: .cfa -56 + ^ $r12: .cfa -48 + ^ $r13: .cfa -40 + ^ $r14: .cfa -32 + ^ $r15: .cfa -24 + ^
STACK CFI INIT 72b0 140 .cfa: $rbp 16 + $rbp: .cfa -16 + ^ .ra: .cfa -8 + ^ $rbx: .cfa -56 + ^ $r12: .cfa -48 + ^ $r13: .cfa -40 + ^ $r14: .cfa -32 + ^ $r15: .cfa -24 + ^
STACK CFI INIT 73f0 300 .cfa: $rbp 16 + $rbp: .cfa -16 + ^ .ra: .cfa -8 + ^ $rbx: .cfa -56 + ^ $r12: .cfa -48 + ^ $r13: .cfa -40 + ^ $r14: .cfa -32 + ^ $r15: .cfa -24 + ^
STACK CFI INIT 76f0 20 .cfa: $rbp 16 + $rbp: .cfa -16 + ^ .ra: .cfa -8 + ^
STACK CFI INIT 7710 1e0 .cfa: $rbp 16 + $rbp: .cfa -16 + ^ .ra: .cfa -8 + ^ $rbx: .cfa -56 + ^ $r12: .cfa -48 + ^ $r13: .cfa -40 + ^ $r14: .cfa -32 + ^ $r15: .cfa -24 + ^
STACK CFI INIT 78f0 40 .cfa: $rbp 16 + $rbp: .cfa -16 + ^ .ra: .cfa -8 + ^
STACK CFI INIT 7930 110 .cfa: $rbp 16 + $rbp: .cfa -16 + ^ .ra: .cfa -8 + ^ $rbx: .cfa -56 + ^ $r12: .cfa -48 + ^ $r13: .cfa -40 + ^ $r14: .cfa -32 + ^ $r15: .cfa -24 + ^
STACK CFI INIT 7a40 120 .cfa: $rbp 16 + $rbp: .cfa -16 + ^ .ra: .cfa -8 + ^ $rbx: .cfa -48 + ^ $r12: .cfa -40 + ^ $r14: .cfa -32 + ^ $r15: .cfa -24 + ^
STACK CFI INIT 7b60 30 .cfa: $rbp 16 + $rbp: .cfa -16 + ^ .ra: .cfa -8 + ^
STACK CFI INIT 7b90 a0 .cfa: $rbp 16 + $rbp: .cfa -16 + ^ .ra: .cfa -8 + ^ $rbx: .cfa -56 + ^ $r12: .cfa -48 + ^ $r13: .cfa -40 + ^ $r14: .cfa -32 + ^ $r15: .cfa -24 + ^
STACK CFI INIT 7c30 c0 .cfa: $rbp 16 + $rbp: .cfa -16 + ^ .ra: .cfa -8 + ^ $rbx: .cfa -56 + ^ $r12: .cfa -48 + ^ $r13: .cfa -40 + ^ $r14: .cfa -32 + ^ $r15: .cfa -24 + ^
STACK CFI INIT 7cf0 e0 .cfa: $rbp 16 + $rbp: .cfa -16 + ^ .ra: .cfa -8 + ^ $rbx: .cfa -56 + ^ $r12: .cfa -48 + ^ $r13: .cfa -40 + ^ $r14: .cfa -32 + ^ $r15: .cfa -24 + ^
STACK CFI INIT 7dd0 d0 .cfa: $rbp 16 + $rbp: .cfa -16 + ^ .ra: .cfa -8 + ^ $rbx: .cfa -56 + ^ $r12: .cfa -48 + ^ $r13: .cfa -40 + ^ $r14: .cfa -32 + ^ $r15: .cfa -24 + ^
STACK CFI INIT 7ea0 170 .cfa: $rbp 16 + $rbp: .cfa -16 + ^ .ra: .cfa -8 + ^
STACK CFI INIT 8010 70 .cfa: $rbp 16 + $rbp: .cfa -16 + ^ .ra: .cfa -8 + ^ $rbx: .cfa -32 + ^ $r14: .cfa -24 + ^
STACK CFI INIT 8080 60 .cfa: $rbp 16 + $rbp: .cfa -16 + ^ .ra: .cfa -8 + ^
STACK CFI INIT 80e0 d0 .cfa: $rbp 16 + $rbp: .cfa -16 + ^ .ra: .cfa -8 + ^ $rbx: .cfa -48 + ^ $r12: .cfa -40 + ^ $r14: .cfa -32 + ^ $r15: .cfa -24 + ^
STACK CFI INIT 81b0 50 .cfa: $rbp 16 + $rbp: .cfa -16 + ^ .ra: .cfa -8 + ^
STACK CFI INIT 8200 430 .cfa: $rbp 16 + $rbp: .cfa -16 + ^ .ra: .cfa -8 + ^ $rbx: .cfa -56 + ^ $r12: .cfa -48 + ^ $r13: .cfa -40 + ^ $r14: .cfa -32 + ^ $r15: .cfa -24 + ^
STACK CFI INIT 8630 440 .cfa: $rbp 16 + $rbp: .cfa -16 + ^ .ra: .cfa -8 + ^ $rbx: .cfa -56 + ^ $r12: .cfa -48 + ^ $r13: .cfa -40 + ^ $r14: .cfa -32 + ^ $r15: .cfa -24 + ^
STACK CFI INIT 8a70 20 .cfa: $rbp 16 + $rbp: .cfa -16 + ^ .ra: .cfa -8 + ^
STACK CFI INIT 8a90 1a0 .cfa: $rbp 16 + $rbp: .cfa -16 + ^ .ra: .cfa -8 + ^ $rbx: .cfa -56 + ^ $r12: .cfa -48 + ^ $r13: .cfa -40 + ^ $r14: .cfa -32 + ^ $r15: .cfa -24 + ^
STACK CFI INIT 8c30 220 .cfa: $rbp 16 + $rbp: .cfa -16 + ^ .ra: .cfa -8 + ^ $rbx: .cfa -56 + ^ $r12: .cfa -48 + ^ $r13: .cfa -40 + ^ $r14: .cfa -32 + ^ $r15: .cfa -24 + ^
STACK CFI INIT 8e50 d0 .cfa: $rbp 16 + $rbp: .cfa -16 + ^ .ra: .cfa -8 + ^ $rbx: .cfa -48 + ^ $r12: .cfa -40 + ^ $r14: .cfa -32 + ^ $r15: .cfa -24 + ^
STACK CFI INIT 8f20 100 .cfa: $rbp 16 + $rbp: .cfa -16 + ^ .ra: .cfa -8 + ^ $rbx: .cfa -56 + ^ $r12: .cfa -48 + ^ $r13: .cfa -40 + ^ $r14: .cfa -32 + ^ $r15: .cfa -24 + ^
STACK CFI INIT 9020 40 .cfa: $rbp 16 + $rbp: .cfa -16 + ^ .ra: .cfa -8 + ^
STACK CFI INIT 9060 3a0 .cfa: $rbp 16 + $rbp: .cfa -16 + ^ .ra: .cfa -8 + ^ $rbx: .cfa -32 + ^ $r14: .cfa -24 + ^
STACK CFI INIT 9400 3b0 .cfa: $rbp 16 + $rbp: .cfa -16 + ^ .ra: .cfa -8 + ^ $rbx: .cfa -40 + ^ $r14: .cfa -32 + ^ $r15: .cfa -24 + ^
STACK CFI INIT 97b0 60 .cfa: $rbp 16 + $rbp: .cfa -16 + ^ .ra: .cfa -8 + ^ $rbx: .cfa -32 + ^ $r14: .cfa -24 + ^
STACK CFI INIT 9810 50 .cfa: $rbp 16 + $rbp: .cfa -16 + ^ .ra: .cfa -8 + ^
STACK CFI INIT 9860 60 .cfa: $rbp 16 + $rbp: .cfa -16 + ^ .ra: .cfa -8 + ^ $rbx: .cfa -32 + ^ $r14: .cfa -24 + ^
STACK CFI INIT 98c0 20 .cfa: $rbp 16 + $rbp: .cfa -16 + ^ .ra: .cfa -8 + ^
STACK CFI INIT 98e0 80 .cfa: $rbp 16 + $rbp: .cfa -16 + ^ .ra: .cfa -8 + ^ $rbx: .cfa -32 + ^ $r14: .cfa -24 + ^
STACK CFI INIT 9960 80 .cfa: $rbp 16 + $rbp: .cfa -16 + ^ .ra: .cfa -8 + ^ $rbx: .cfa -32 + ^ $r14: .cfa -24 + ^
STACK CFI INIT 99e0 80 .cfa: $rbp 16 + $rbp: .cfa -16 + ^ .ra: .cfa -8 + ^ $rbx: .cfa -32 + ^ $r14: .cfa -24 + ^
STACK CFI INIT 9a60 40 .cfa: $rbp 16 + $rbp: .cfa -16 + ^ .ra: .cfa -8 + ^
STACK CFI INIT 9aa0 90 .cfa: $rbp 16 + $rbp: .cfa -16 + ^ .ra: .cfa -8 + ^ $rbx: .cfa -40 + ^ $r14: .cfa -32 + ^ $r15: .cfa -24 + ^
STACK CFI INIT 9b30 160 .cfa: $rbp 16 + $rbp: .cfa -16 + ^ .ra: .cfa -8 + ^ $rbx: .cfa -56 + ^ $r12: .cfa -48 + ^ $r13: .cfa -40 + ^ $r14: .cfa -32 + ^ $r15: .cfa -24 + ^
STACK CFI INIT 9c90 150 .cfa: $rbp 16 + $rbp: .cfa -16 + ^ .ra: .cfa -8 + ^ $rbx: .cfa -56 + ^ $r12: .cfa -48 + ^ $r13: .cfa -40 + ^ $r14: .cfa -32 + ^ $r15: .cfa -24 + ^
STACK CFI INIT 9de0 120 .cfa: $rbp 16 + $rbp: .cfa -16 + ^ .ra: .cfa -8 + ^ $rbx: .cfa -40 + ^ $r14: .cfa -32 + ^ $r15: .cfa -24 + ^
STACK CFI INIT 9f00 1a0 .cfa: $rbp 16 + $rbp: .cfa -16 + ^ .ra: .cfa -8 + ^ $rbx: .cfa -56 + ^ $r12: .cfa -48 + ^ $r13: .cfa -40 + ^ $r14: .cfa -32 + ^ $r15: .cfa -24 + ^
STACK CFI INIT a0a0 30 .cfa: $rbp 16 + $rbp: .cfa -16 + ^ .ra: .cfa -8 + ^
STACK CFI INIT a0d0 60 .cfa: $rbp 16 + $rbp: .cfa -16 + ^ .ra: .cfa -8 + ^ $rbx: .cfa -32 + ^ $r14: .cfa -24 + ^
STACK CFI INIT a130 20 .cfa: $rbp 16 + $rbp: .cfa -16 + ^ .ra: .cfa -8 + ^
STACK CFI INIT a150 70 .cfa: $rbp 16 + $rbp: .cfa -16 + ^ .ra: .cfa -8 + ^ $rbx: .cfa -32 + ^ $r14: .cfa -24 + ^
STACK CFI INIT a1c0 a0 .cfa: $rbp 16 + $rbp: .cfa -16 + ^ .ra: .cfa -8 + ^ $rbx: .cfa -32 + ^ $r14: .cfa -24 + ^
STACK CFI INIT a260 100 .cfa: $rbp 16 + $rbp: .cfa -16 + ^ .ra: .cfa -8 + ^ $rbx: .cfa -56 + ^ $r12: .cfa -48 + ^ $r13: .cfa -40 + ^ $r14: .cfa -32 + ^ $r15: .cfa -24 + ^
STACK CFI INIT a360 100 .cfa: $rbp 16 + $rbp: .cfa -16 + ^ .ra: .cfa -8 + ^ $rbx: .cfa -56 + ^ $r12: .cfa -48 + ^ $r13: .cfa -40 + ^ $r14: .cfa -32 + ^ $r15: .cfa -24 + ^
STACK CFI INIT a460 a0 .cfa: $rbp 16 + $rbp: .cfa -16 + ^ .ra: .cfa -8 + ^ $rbx: .cfa -40 + ^ $r14: .cfa -32 + ^ $r15: .cfa -24 + ^
STACK CFI INIT a500 70 .cfa: $rbp 16 + $rbp: .cfa -16 + ^ .ra: .cfa -8 + ^ $rbx: .cfa -24 + ^
STACK CFI INIT a570 360 .cfa: $rbp 16 + $rbp: .cfa -16 + ^ .ra: .cfa -8 + ^ $rbx: .cfa -56 + ^ $r12: .cfa -48 + ^ $r13: .cfa -40 + ^ $r14: .cfa -32 + ^ $r15: .cfa -24 + ^
STACK CFI INIT a8d0 50 .cfa: $rbp 16 + $rbp: .cfa -16 + ^ .ra: .cfa -8 + ^
STACK CFI INIT a920 290 .cfa: $rbp 16 + $rbp: .cfa -16 + ^ .ra: .cfa -8 + ^ $rbx: .cfa -56 + ^ $r12: .cfa -48 + ^ $r13: .cfa -40 + ^ $r14: .cfa -32 + ^ $r15: .cfa -24 + ^
STACK CFI INIT abb0 180 .cfa: $rbp 16 + $rbp: .cfa -16 + ^ .ra: .cfa -8 + ^
STACK CFI INIT ad30 c0 .cfa: $rbp 16 + $rbp: .cfa -16 + ^ .ra: .cfa -8 + ^ $rbx: .cfa -56 + ^ $r12: .cfa -48 + ^ $r13: .cfa -40 + ^ $r14: .cfa -32 + ^ $r15: .cfa -24 + ^
STACK CFI INIT adf0 120 .cfa: $rbp 16 + $rbp: .cfa -16 + ^ .ra: .cfa -8 + ^
STACK CFI INIT af10 7a0 .cfa: $rbp 16 + $rbp: .cfa -16 + ^ .ra: .cfa -8 + ^ $rbx: .cfa -56 + ^ $r12: .cfa -48 + ^ $r13: .cfa -40 + ^ $r14: .cfa -32 + ^ $r15: .cfa -24 + ^
STACK CFI INIT b6b0 140 .cfa: $rbp 16 + $rbp: .cfa -16 + ^ .ra: .cfa -8 + ^ $rbx: .cfa -48 + ^ $r12: .cfa -40 + ^ $r14: .cfa -32 + ^ $r15: .cfa -24 + ^
STACK CFI INIT b7f0 80 .cfa: $rbp 16 + $rbp: .cfa -16 + ^ .ra: .cfa -8 + ^
STACK CFI INIT b870 60 .cfa: $rbp 16 + $rbp: .cfa -16 + ^ .ra: .cfa -8 + ^ $rbx: .cfa -32 + ^ $r14: .cfa -24 + ^
STACK CFI INIT b8d0 30 .cfa: $rbp 16 + $rbp: .cfa -16 + ^ .ra: .cfa -8 + ^
STACK CFI INIT b900 a0 .cfa: $rbp 16 + $rbp: .cfa -16 + ^ .ra: .cfa -8 + ^ $rbx: .cfa -56 + ^ $r12: .cfa -48 + ^ $r13: .cfa -40 + ^ $r14: .cfa -32 + ^ $r15: .cfa -24 + ^
STACK CFI INIT b9a0 c0 .cfa: $rbp 16 + $rbp: .cfa -16 + ^ .ra: .cfa -8 + ^
STACK CFI INIT ba60 430 .cfa: $rbp 16 + $rbp: .cfa -16 + ^ .ra: .cfa -8 + ^ $rbx: .cfa -56 + ^ $r12: .cfa -48 + ^ $r13: .cfa -40 + ^ $r14: .cfa -32 + ^ $r15: .cfa -24 + ^
STACK CFI INIT be90 a0 .cfa: $rbp 16 + $rbp: .cfa -16 + ^ .ra: .cfa -8 + ^
STACK CFI INIT bf30 100 .cfa: $rbp 16 + $rbp: .cfa -16 + ^ .ra: .cfa -8 + ^ $rbx: .cfa -56 + ^ $r12: .cfa -48 + ^ $r13: .cfa -40 + ^ $r14: .cfa -32 + ^ $r15: .cfa -24 + ^
STACK CFI INIT c030 c0 .cfa: $rbp 16 + $rbp: .cfa -16 + ^ .ra: .cfa -8 + ^ $rbx: .cfa -56 + ^ $r12: .cfa -48 + ^ $r13: .cfa -40 + ^ $r14: .cfa -32 + ^ $r15: .cfa -24 + ^
STACK CFI INIT c0f0 70 .cfa: $rbp 16 + $rbp: .cfa -16 + ^ .ra: .cfa -8 + ^
STACK CFI INIT c160 40 .cfa: $rbp 16 + $rbp: .cfa -16 + ^ .ra: .cfa -8 + ^ $rbx: .cfa -32 + ^ $r14: .cfa -24 + ^
STACK CFI INIT c1a0 e0 .cfa: $rbp 16 + $rbp: .cfa -16 + ^ .ra: .cfa -8 + ^ $rbx: .cfa -56 + ^ $r12: .cfa -48 + ^ $r13: .cfa -40 + ^ $r14: .cfa -32 + ^ $r15: .cfa -24 + ^
STACK CFI INIT c280 60 .cfa: $rbp 16 + $rbp: .cfa -16 + ^ .ra: .cfa -8 + ^
STACK CFI INIT c2e0 e0 .cfa: $rbp 16 + $rbp: .cfa -16 + ^ .ra: .cfa -8 + ^ $rbx: .cfa -56 + ^ $r12: .cfa -48 + ^ $r13: .cfa -40 + ^ $r14: .cfa -32 + ^ $r15: .cfa -24 + ^
STACK CFI INIT c3c0 e0 .cfa: $rbp 16 + $rbp: .cfa -16 + ^ .ra: .cfa -8 + ^ $rbx: .cfa -56 + ^ $r12: .cfa -48 + ^ $r13: .cfa -40 + ^ $r14: .cfa -32 + ^ $r15: .cfa -24 + ^
STACK CFI INIT c4a0 60 .cfa: $rbp 16 + $rbp: .cfa -16 + ^ .ra: .cfa -8 + ^
STACK CFI INIT c500 40 .cfa: $rbp 16 + $rbp: .cfa -16 + ^ .ra: .cfa -8 + ^ $rbx: .cfa -24 + ^
STACK CFI INIT c540 e0 .cfa: $rbp 16 + $rbp: .cfa -16 + ^ .ra: .cfa -8 + ^
STACK CFI INIT c620 90 .cfa: $rbp 16 + $rbp: .cfa -16 + ^ .ra: .cfa -8 + ^ $rbx: .cfa -40 + ^ $r14: .cfa -32 + ^ $r15: .cfa -24 + ^
STACK CFI INIT c6b0 2c0 .cfa: $rbp 16 + $rbp: .cfa -16 + ^ .ra: .cfa -8 + ^ $rbx: .cfa -56 + ^ $r12: .cfa -48 + ^ $r13: .cfa -40 + ^ $r14: .cfa -32 + ^ $r15: .cfa -24 + ^
STACK CFI INIT c970 a0 .cfa: $rbp 16 + $rbp: .cfa -16 + ^ .ra: .cfa -8 + ^ $rbx: .cfa -24 + ^
STACK CFI INIT ca10 40 .cfa: $rsp 8 + .ra: .cfa -8 + ^
STACK CFI INIT ca50 d0 .cfa: $rbp 16 + $rbp: .cfa -16 + ^ .ra: .cfa -8 + ^
STACK CFI INIT cb20 50 .cfa: $rbp 16 + $rbp: .cfa -16 + ^ .ra: .cfa -8 + ^ $rbx: .cfa -32 + ^ $r14: .cfa -24 + ^
STACK CFI INIT cb70 70 .cfa: $rbp 16 + $rbp: .cfa -16 + ^ .ra: .cfa -8 + ^ $rbx: .cfa -32 + ^ $r14: .cfa -24 + ^
STACK CFI INIT cbe0 20 .cfa: $rbp 16 + $rbp: .cfa -16 + ^ .ra: .cfa -8 + ^
STACK CFI INIT cc00 100 .cfa: $rbp 16 + $rbp: .cfa -16 + ^ .ra: .cfa -8 + ^ $rbx: .cfa -32 + ^ $r14: .cfa -24 + ^
STACK CFI INIT cd00 20 .cfa: $rbp 16 + $rbp: .cfa -16 + ^ .ra: .cfa -8 + ^ $rbx: .cfa -24 + ^
STACK CFI INIT cd20 80 .cfa: $rbp 16 + $rbp: .cfa -16 + ^ .ra: .cfa -8 + ^ $rbx: .cfa -48 + ^ $r12: .cfa -40 + ^ $r14: .cfa -32 + ^ $r15: .cfa -24 + ^
STACK CFI INIT cda0 140 .cfa: $rbp 16 + $rbp: .cfa -16 + ^ .ra: .cfa -8 + ^ $rbx: .cfa -48 + ^ $r12: .cfa -40 + ^ $r14: .cfa -32 + ^ $r15: .cfa -24 + ^
STACK CFI INIT cee0 ea0 .cfa: $rbp 16 + $rbp: .cfa -16 + ^ .ra: .cfa -8 + ^ $rbx: .cfa -56 + ^ $r12: .cfa -48 + ^ $r13: .cfa -40 + ^ $r14: .cfa -32 + ^ $r15: .cfa -24 + ^
STACK CFI INIT dd80 410 .cfa: $rbp 16 + $rbp: .cfa -16 + ^ .ra: .cfa -8 + ^ $rbx: .cfa -56 + ^ $r12: .cfa -48 + ^ $r13: .cfa -40 + ^ $r14: .cfa -32 + ^ $r15: .cfa -24 + ^
STACK CFI INIT e190 160 .cfa: $rbp 16 + $rbp: .cfa -16 + ^ .ra: .cfa -8 + ^ $rbx: .cfa -48 + ^ $r12: .cfa -40 + ^ $r14: .cfa -32 + ^ $r15: .cfa -24 + ^
STACK CFI INIT e2f0 8c0 .cfa: $rbp 16 + $rbp: .cfa -16 + ^ .ra: .cfa -8 + ^ $rbx: .cfa -56 + ^ $r12: .cfa -48 + ^ $r13: .cfa -40 + ^ $r14: .cfa -32 + ^ $r15: .cfa -24 + ^
STACK CFI INIT ebb0 20 .cfa: $rbp 16 + $rbp: .cfa -16 + ^ .ra: .cfa -8 + ^
STACK CFI INIT ebd0 60 .cfa: $rbp 16 + $rbp: .cfa -16 + ^ .ra: .cfa -8 + ^ $rbx: .cfa -32 + ^ $r14: .cfa -24 + ^
STACK CFI INIT ec30 20 .cfa: $rbp 16 + $rbp: .cfa -16 + ^ .ra: .cfa -8 + ^
STACK CFI INIT ec50 a0 .cfa: $rbp 16 + $rbp: .cfa -16 + ^ .ra: .cfa -8 + ^ $rbx: .cfa -32 + ^ $r14: .cfa -24 + ^
STACK CFI INIT ecf0 a0 .cfa: $rbp 16 + $rbp: .cfa -16 + ^ .ra: .cfa -8 + ^ $rbx: .cfa -40 + ^ $r14: .cfa -32 + ^ $r15: .cfa -24 + ^
STACK CFI INIT ed90 70 .cfa: $rbp 16 + $rbp: .cfa -16 + ^ .ra: .cfa -8 + ^ $rbx: .cfa -24 + ^
STACK CFI INIT ee00 70 .cfa: $rbp 16 + $rbp: .cfa -16 + ^ .ra: .cfa -8 + ^
STACK CFI INIT ee70 100 .cfa: $rbp 16 + $rbp: .cfa -16 + ^ .ra: .cfa -8 + ^ $rbx: .cfa -24 + ^
STACK CFI INIT ef70 60 .cfa: $rbp 16 + $rbp: .cfa -16 + ^ .ra: .cfa -8 + ^
STACK CFI INIT efd0 e0 .cfa: $rbp 16 + $rbp: .cfa -16 + ^ .ra: .cfa -8 + ^ $rbx: .cfa -24 + ^
STACK CFI INIT f0b0 50 .cfa: $rbp 16 + $rbp: .cfa -16 + ^ .ra: .cfa -8 + ^ $rbx: .cfa -32 + ^ $r14: .cfa -24 + ^
STACK CFI INIT f100 50 .cfa: $rbp 16 + $rbp: .cfa -16 + ^ .ra: .cfa -8 + ^
STACK CFI INIT f150 430 .cfa: $rbp 16 + $rbp: .cfa -16 + ^ .ra: .cfa -8 + ^ $rbx: .cfa -48 + ^ $r12: .cfa -40 + ^ $r14: .cfa -32 + ^ $r15: .cfa -24 + ^
STACK CFI INIT f580 60 .cfa: $rbp 16 + $rbp: .cfa -16 + ^ .ra: .cfa -8 + ^ $rbx: .cfa -32 + ^ $r14: .cfa -24 + ^
STACK CFI INIT f5e0 50 .cfa: $rbp 16 + $rbp: .cfa -16 + ^ .ra: .cfa -8 + ^
STACK CFI INIT f630 60 .cfa: $rbp 16 + $rbp: .cfa -16 + ^ .ra: .cfa -8 + ^ $rbx: .cfa -32 + ^ $r14: .cfa -24 + ^
STACK CFI INIT f690 20 .cfa: $rbp 16 + $rbp: .cfa -16 + ^ .ra: .cfa -8 + ^
STACK CFI INIT f6b0 80 .cfa: $rbp 16 + $rbp: .cfa -16 + ^ .ra: .cfa -8 + ^ $rbx: .cfa -32 + ^ $r14: .cfa -24 + ^
STACK CFI INIT f730 a0 .cfa: $rbp 16 + $rbp: .cfa -16 + ^ .ra: .cfa -8 + ^ $rbx: .cfa -32 + ^ $r14: .cfa -24 + ^
STACK CFI INIT f7d0 60 .cfa: $rbp 16 + $rbp: .cfa -16 + ^ .ra: .cfa -8 + ^
STACK CFI INIT f830 90 .cfa: $rbp 16 + $rbp: .cfa -16 + ^ .ra: .cfa -8 + ^ $rbx: .cfa -40 + ^ $r14: .cfa -32 + ^ $r15: .cfa -24 + ^
STACK CFI INIT f8c0 170 .cfa: $rbp 16 + $rbp: .cfa -16 + ^ .ra: .cfa -8 + ^ $rbx: .cfa -56 + ^ $r12: .cfa -48 + ^ $r13: .cfa -40 + ^ $r14: .cfa -32 + ^ $r15: .cfa -24 + ^
STACK CFI INIT fa30 120 .cfa: $rbp 16 + $rbp: .cfa -16 + ^ .ra: .cfa -8 + ^ $rbx: .cfa -40 + ^ $r14: .cfa -32 + ^ $r15: .cfa -24 + ^
STACK CFI INIT fb50 1a0 .cfa: $rbp 16 + $rbp: .cfa -16 + ^ .ra: .cfa -8 + ^ $rbx: .cfa -56 + ^ $r12: .cfa -48 + ^ $r13: .cfa -40 + ^ $r14: .cfa -32 + ^ $r15: .cfa -24 + ^
STACK CFI INIT fcf0 60 .cfa: $rbp 16 + $rbp: .cfa -16 + ^ .ra: .cfa -8 + ^
STACK CFI INIT fd50 90 .cfa: $rbp 16 + $rbp: .cfa -16 + ^ .ra: .cfa -8 + ^ $rbx: .cfa -40 + ^ $r14: .cfa -32 + ^ $r15: .cfa -24 + ^
STACK CFI INIT fde0 2c0 .cfa: $rbp 16 + $rbp: .cfa -16 + ^ .ra: .cfa -8 + ^ $rbx: .cfa -56 + ^ $r12: .cfa -48 + ^ $r13: .cfa -40 + ^ $r14: .cfa -32 + ^ $r15: .cfa -24 + ^
STACK CFI INIT 100a0 a0 .cfa: $rbp 16 + $rbp: .cfa -16 + ^ .ra: .cfa -8 + ^ $rbx: .cfa -24 + ^
STACK CFI INIT 10140 1e0 .cfa: $rbp 16 + $rbp: .cfa -16 + ^ .ra: .cfa -8 + ^
STACK CFI INIT 10320 c0 .cfa: $rbp 16 + $rbp: .cfa -16 + ^ .ra: .cfa -8 + ^ $rbx: .cfa -56 + ^ $r12: .cfa -48 + ^ $r13: .cfa -40 + ^ $r14: .cfa -32 + ^ $r15: .cfa -24 + ^
STACK CFI INIT 103e0 130 .cfa: $rbp 16 + $rbp: .cfa -16 + ^ .ra: .cfa -8 + ^
STACK CFI INIT 10510 230 .cfa: $rbp 16 + $rbp: .cfa -16 + ^ .ra: .cfa -8 + ^ $rbx: .cfa -56 + ^ $r12: .cfa -48 + ^ $r13: .cfa -40 + ^ $r14: .cfa -32 + ^ $r15: .cfa -24 + ^
STACK CFI INIT 10740 e0 .cfa: $rbp 16 + $rbp: .cfa -16 + ^ .ra: .cfa -8 + ^
STACK CFI INIT 10820 50 .cfa: $rbp 16 + $rbp: .cfa -16 + ^ .ra: .cfa -8 + ^ $rbx: .cfa -32 + ^ $r14: .cfa -24 + ^
STACK CFI INIT 10870 20 .cfa: $rbp 16 + $rbp: .cfa -16 + ^ .ra: .cfa -8 + ^ $rbx: .cfa -24 + ^
STACK CFI INIT 10890 120 .cfa: $rbp 16 + $rbp: .cfa -16 + ^ .ra: .cfa -8 + ^ $rbx: .cfa -56 + ^ $r12: .cfa -48 + ^ $r13: .cfa -40 + ^ $r14: .cfa -32 + ^ $r15: .cfa -24 + ^
STACK CFI INIT 109b0 ab0 .cfa: $rbp 16 + $rbp: .cfa -16 + ^ .ra: .cfa -8 + ^ $rbx: .cfa -56 + ^ $r12: .cfa -48 + ^ $r13: .cfa -40 + ^ $r14: .cfa -32 + ^ $r15: .cfa -24 + ^
STACK CFI INIT 11460 70 .cfa: $rbp 16 + $rbp: .cfa -16 + ^ .ra: .cfa -8 + ^
STACK CFI INIT 114d0 50 .cfa: $rbp 16 + $rbp: .cfa -16 + ^ .ra: .cfa -8 + ^ $rbx: .cfa -32 + ^ $r14: .cfa -24 + ^
STACK CFI INIT 11520 20 .cfa: $rbp 16 + $rbp: .cfa -16 + ^ .ra: .cfa -8 + ^ $rbx: .cfa -24 + ^
STACK CFI INIT 11540 1f0 .cfa: $rbp 16 + $rbp: .cfa -16 + ^ .ra: .cfa -8 + ^ $rbx: .cfa -56 + ^ $r12: .cfa -48 + ^ $r13: .cfa -40 + ^ $r14: .cfa -32 + ^ $r15: .cfa -24 + ^
STACK CFI INIT 11730 670 .cfa: $rbp 16 + $rbp: .cfa -16 + ^ .ra: .cfa -8 + ^ $rbx: .cfa -56 + ^ $r12: .cfa -48 + ^ $r13: .cfa -40 + ^ $r14: .cfa -32 + ^ $r15: .cfa -24 + ^
STACK CFI INIT 11da0 50 .cfa: $rbp 16 + $rbp: .cfa -16 + ^ .ra: .cfa -8 + ^ $rbx: .cfa -32 + ^ $r14: .cfa -24 + ^
STACK CFI INIT 11df0 20 .cfa: $rbp 16 + $rbp: .cfa -16 + ^ .ra: .cfa -8 + ^ $rbx: .cfa -24 + ^
STACK CFI INIT 11e10 a0 .cfa: $rbp 16 + $rbp: .cfa -16 + ^ .ra: .cfa -8 + ^ $rbx: .cfa -32 + ^ $r14: .cfa -24 + ^
STACK CFI INIT 11eb0 50 .cfa: $rbp 16 + $rbp: .cfa -16 + ^ .ra: .cfa -8 + ^ $rbx: .cfa -32 + ^ $r14: .cfa -24 + ^
STACK CFI INIT 11f00 20 .cfa: $rbp 16 + $rbp: .cfa -16 + ^ .ra: .cfa -8 + ^ $rbx: .cfa -24 + ^
STACK CFI INIT 11f20 100 .cfa: $rbp 16 + $rbp: .cfa -16 + ^ .ra: .cfa -8 + ^ $rbx: .cfa -24 + ^
STACK CFI INIT 12020 20 .cfa: $rbp 16 + $rbp: .cfa -16 + ^ .ra: .cfa -8 + ^ $rbx: .cfa -24 + ^
STACK CFI INIT 12040 30 .cfa: $rbp 16 + $rbp: .cfa -16 + ^ .ra: .cfa -8 + ^
STACK CFI INIT 12070 60 .cfa: $rbp 16 + $rbp: .cfa -16 + ^ .ra: .cfa -8 + ^ $rbx: .cfa -32 + ^ $r14: .cfa -24 + ^
STACK CFI INIT 120d0 30 .cfa: $rbp 16 + $rbp: .cfa -16 + ^ .ra: .cfa -8 + ^ $rbx: .cfa -24 + ^
STACK CFI INIT 12100 210 .cfa: $rbp 16 + $rbp: .cfa -16 + ^ .ra: .cfa -8 + ^ $rbx: .cfa -48 + ^ $r12: .cfa -40 + ^ $r14: .cfa -32 + ^ $r15: .cfa -24 + ^
STACK CFI INIT 12310 80 .cfa: $rbp 16 + $rbp: .cfa -16 + ^ .ra: .cfa -8 + ^ $rbx: .cfa -32 + ^ $r14: .cfa -24 + ^
STACK CFI INIT 12390 150 .cfa: $rbp 16 + $rbp: .cfa -16 + ^ .ra: .cfa -8 + ^ $rbx: .cfa -40 + ^ $r14: .cfa -32 + ^ $r15: .cfa -24 + ^
STACK CFI INIT 124e0 30 .cfa: $rbp 16 + $rbp: .cfa -16 + ^ .ra: .cfa -8 + ^
STACK CFI INIT 12510 40 .cfa: $rbp 16 + $rbp: .cfa -16 + ^ .ra: .cfa -8 + ^ $rbx: .cfa -24 + ^
STACK CFI INIT 12550 30 .cfa: $rbp 16 + $rbp: .cfa -16 + ^ .ra: .cfa -8 + ^
STACK CFI INIT 12580 200 .cfa: $rbp 16 + $rbp: .cfa -16 + ^ .ra: .cfa -8 + ^ $rbx: .cfa -56 + ^ $r12: .cfa -48 + ^ $r13: .cfa -40 + ^ $r14: .cfa -32 + ^ $r15: .cfa -24 + ^
STACK CFI INIT 12780 30 .cfa: $rbp 16 + $rbp: .cfa -16 + ^ .ra: .cfa -8 + ^
STACK CFI INIT 127b0 350 .cfa: $rbp 16 + $rbp: .cfa -16 + ^ .ra: .cfa -8 + ^ $rbx: .cfa -56 + ^ $r12: .cfa -48 + ^ $r13: .cfa -40 + ^ $r14: .cfa -32 + ^ $r15: .cfa -24 + ^
STACK CFI INIT 12b00 40 .cfa: $rbp 16 + $rbp: .cfa -16 + ^ .ra: .cfa -8 + ^
STACK CFI INIT 12b40 90 .cfa: $rbp 16 + $rbp: .cfa -16 + ^ .ra: .cfa -8 + ^ $rbx: .cfa -48 + ^ $r12: .cfa -40 + ^ $r14: .cfa -32 + ^ $r15: .cfa -24 + ^
STACK CFI INIT 12bd0 60 .cfa: $rbp 16 + $rbp: .cfa -16 + ^ .ra: .cfa -8 + ^
STACK CFI INIT 12c30 110 .cfa: $rbp 16 + $rbp: .cfa -16 + ^ .ra: .cfa -8 + ^ $rbx: .cfa -40 + ^ $r14: .cfa -32 + ^ $r15: .cfa -24 + ^
STACK CFI INIT 12d40 60 .cfa: $rbp 16 + $rbp: .cfa -16 + ^ .ra: .cfa -8 + ^ $rbx: .cfa -48 + ^ $r12: .cfa -40 + ^ $r14: .cfa -32 + ^ $r15: .cfa -24 + ^
STACK CFI INIT 12da0 c0 .cfa: $rbp 16 + $rbp: .cfa -16 + ^ .ra: .cfa -8 + ^
STACK CFI INIT 12e60 2a0 .cfa: $rbp 16 + $rbp: .cfa -16 + ^ .ra: .cfa -8 + ^ $rbx: .cfa -56 + ^ $r12: .cfa -48 + ^ $r13: .cfa -40 + ^ $r14: .cfa -32 + ^ $r15: .cfa -24 + ^
STACK CFI INIT 13100 5a0 .cfa: $rbp 16 + $rbp: .cfa -16 + ^ .ra: .cfa -8 + ^ $rbx: .cfa -56 + ^ $r12: .cfa -48 + ^ $r13: .cfa -40 + ^ $r14: .cfa -32 + ^ $r15: .cfa -24 + ^
STACK CFI INIT 136a0 90 .cfa: $rbp 16 + $rbp: .cfa -16 + ^ .ra: .cfa -8 + ^ $rbx: .cfa -40 + ^ $r14: .cfa -32 + ^ $r15: .cfa -24 + ^
STACK CFI INIT 13730 a0 .cfa: $rbp 16 + $rbp: .cfa -16 + ^ .ra: .cfa -8 + ^ $rbx: .cfa -32 + ^ $r14: .cfa -24 + ^
STACK CFI INIT 137d0 20 .cfa: $rbp 16 + $rbp: .cfa -16 + ^ .ra: .cfa -8 + ^
STACK CFI INIT 137f0 730 .cfa: $rbp 16 + $rbp: .cfa -16 + ^ .ra: .cfa -8 + ^ $rbx: .cfa -56 + ^ $r12: .cfa -48 + ^ $r13: .cfa -40 + ^ $r14: .cfa -32 + ^ $r15: .cfa -24 + ^
STACK CFI INIT 13f20 1f0 .cfa: $rbp 16 + $rbp: .cfa -16 + ^ .ra: .cfa -8 + ^
STACK CFI INIT 14110 320 .cfa: $rbp 16 + $rbp: .cfa -16 + ^ .ra: .cfa -8 + ^ $rbx: .cfa -56 + ^ $r12: .cfa -48 + ^ $r13: .cfa -40 + ^ $r14: .cfa -32 + ^ $r15: .cfa -24 + ^
STACK CFI INIT 14430 150 .cfa: $rbp 16 + $rbp: .cfa -16 + ^ .ra: .cfa -8 + ^ $rbx: .cfa -56 + ^ $r12: .cfa -48 + ^ $r13: .cfa -40 + ^ $r14: .cfa -32 + ^ $r15: .cfa -24 + ^
STACK CFI INIT 14580 60 .cfa: $rbp 16 + $rbp: .cfa -16 + ^ .ra: .cfa -8 + ^ $rbx: .cfa -40 + ^ $r14: .cfa -32 + ^ $r15: .cfa -24 + ^
STACK CFI INIT 145e0 10 .cfa: $rbp 16 + $rbp: .cfa -16 + ^ .ra: .cfa -8 + ^
STACK CFI INIT 145f0 110 .cfa: $rbp 16 + $rbp: .cfa -16 + ^ .ra: .cfa -8 + ^ $rbx: .cfa -40 + ^ $r14: .cfa -32 + ^ $r15: .cfa -24 + ^
STACK CFI INIT 14700 60 .cfa: $rbp 16 + $rbp: .cfa -16 + ^ .ra: .cfa -8 + ^
STACK CFI INIT 14760 60 .cfa: $rbp 16 + $rbp: .cfa -16 + ^ .ra: .cfa -8 + ^ $rbx: .cfa -48 + ^ $r12: .cfa -40 + ^ $r14: .cfa -32 + ^ $r15: .cfa -24 + ^
STACK CFI INIT 147c0 60 .cfa: $rbp 16 + $rbp: .cfa -16 + ^ .ra: .cfa -8 + ^
STACK CFI INIT 14820 d0 .cfa: $rbp 16 + $rbp: .cfa -16 + ^ .ra: .cfa -8 + ^ $rbx: .cfa -40 + ^ $r14: .cfa -32 + ^ $r15: .cfa -24 + ^
STACK CFI INIT 148f0 40 .cfa: $rbp 16 + $rbp: .cfa -16 + ^ .ra: .cfa -8 + ^
STACK CFI INIT 14930 120 .cfa: $rbp 16 + $rbp: .cfa -16 + ^ .ra: .cfa -8 + ^ $rbx: .cfa -24 + ^
STACK CFI INIT 14a50 20 .cfa: $rbp 16 + $rbp: .cfa -16 + ^ .ra: .cfa -8 + ^
STACK CFI INIT 14a70 a0 .cfa: $rbp 16 + $rbp: .cfa -16 + ^ .ra: .cfa -8 + ^ $rbx: .cfa -40 + ^ $r14: .cfa -32 + ^ $r15: .cfa -24 + ^
STACK CFI INIT 14b10 50 .cfa: $rbp 16 + $rbp: .cfa -16 + ^ .ra: .cfa -8 + ^ $rbx: .cfa -32 + ^ $r14: .cfa -24 + ^
STACK CFI INIT 14b60 60 .cfa: $rbp 16 + $rbp: .cfa -16 + ^ .ra: .cfa -8 + ^ $rbx: .cfa -24 + ^
STACK CFI INIT 14bc0 50 .cfa: $rbp 16 + $rbp: .cfa -16 + ^ .ra: .cfa -8 + ^ $rbx: .cfa -32 + ^ $r14: .cfa -24 + ^
STACK CFI INIT 14c10 60 .cfa: $rbp 16 + $rbp: .cfa -16 + ^ .ra: .cfa -8 + ^ $rbx: .cfa -24 + ^
STACK CFI INIT 14c70 50 .cfa: $rbp 16 + $rbp: .cfa -16 + ^ .ra: .cfa -8 + ^ $rbx: .cfa -32 + ^ $r14: .cfa -24 + ^
STACK CFI INIT 14cc0 b0 .cfa: $rbp 16 + $rbp: .cfa -16 + ^ .ra: .cfa -8 + ^
STACK CFI INIT 14d70 100 .cfa: $rbp 16 + $rbp: .cfa -16 + ^ .ra: .cfa -8 + ^ $rbx: .cfa -40 + ^ $r14: .cfa -32 + ^ $r15: .cfa -24 + ^
STACK CFI INIT 14e70 30 .cfa: $rbp 16 + $rbp: .cfa -16 + ^ .ra: .cfa -8 + ^
STACK CFI INIT 14ea0 f0 .cfa: $rbp 16 + $rbp: .cfa -16 + ^ .ra: .cfa -8 + ^ $rbx: .cfa -24 + ^
STACK CFI INIT 14f90 480 .cfa: $rbp 16 + $rbp: .cfa -16 + ^ .ra: .cfa -8 + ^ $rbx: .cfa -48 + ^ $r12: .cfa -40 + ^ $r14: .cfa -32 + ^ $r15: .cfa -24 + ^
STACK CFI INIT 15410 f0 .cfa: $rbp 16 + $rbp: .cfa -16 + ^ .ra: .cfa -8 + ^ $rbx: .cfa -24 + ^
STACK CFI INIT 15500 90 .cfa: $rbp 16 + $rbp: .cfa -16 + ^ .ra: .cfa -8 + ^
STACK CFI INIT 15590 50 .cfa: $rbp 16 + $rbp: .cfa -16 + ^ .ra: .cfa -8 + ^ $rbx: .cfa -32 + ^ $r14: .cfa -24 + ^
STACK CFI INIT 155e0 c0 .cfa: $rbp 16 + $rbp: .cfa -16 + ^ .ra: .cfa -8 + ^ $rbx: .cfa -40 + ^ $r14: .cfa -32 + ^ $r15: .cfa -24 + ^
STACK CFI INIT 156a0 90 .cfa: $rbp 16 + $rbp: .cfa -16 + ^ .ra: .cfa -8 + ^ $rbx: .cfa -24 + ^
STACK CFI INIT 15730 40 .cfa: $rbp 16 + $rbp: .cfa -16 + ^ .ra: .cfa -8 + ^
STACK CFI INIT 15770 50 .cfa: $rbp 16 + $rbp: .cfa -16 + ^ .ra: .cfa -8 + ^ $rbx: .cfa -32 + ^ $r14: .cfa -24 + ^
STACK CFI INIT 157c0 10 .cfa: $rbp 16 + $rbp: .cfa -16 + ^ .ra: .cfa -8 + ^
STACK CFI INIT 157d0 80 .cfa: $rbp 16 + $rbp: .cfa -16 + ^ .ra: .cfa -8 + ^ $rbx: .cfa -32 + ^ $r14: .cfa -24 + ^
STACK CFI INIT 15850 40 .cfa: $rbp 16 + $rbp: .cfa -16 + ^ .ra: .cfa -8 + ^
STACK CFI INIT 15890 e0 .cfa: $rbp 16 + $rbp: .cfa -16 + ^ .ra: .cfa -8 + ^ $rbx: .cfa -24 + ^
STACK CFI INIT 15970 10 .cfa: $rbp 16 + $rbp: .cfa -16 + ^ .ra: .cfa -8 + ^
STACK CFI INIT 15980 120 .cfa: $rbp 16 + $rbp: .cfa -16 + ^ .ra: .cfa -8 + ^ $rbx: .cfa -40 + ^ $r14: .cfa -32 + ^ $r15: .cfa -24 + ^
STACK CFI INIT 15aa0 d0 .cfa: $rbp 16 + $rbp: .cfa -16 + ^ .ra: .cfa -8 + ^ $rbx: .cfa -32 + ^ $r14: .cfa -24 + ^
STACK CFI INIT 15b70 60 .cfa: $rbp 16 + $rbp: .cfa -16 + ^ .ra: .cfa -8 + ^ $rbx: .cfa -24 + ^
STACK CFI INIT 15bd0 180 .cfa: $rbp 16 + $rbp: .cfa -16 + ^ .ra: .cfa -8 + ^
STACK CFI INIT 15d50 b0 .cfa: $rbp 16 + $rbp: .cfa -16 + ^ .ra: .cfa -8 + ^ $rbx: .cfa -40 + ^ $r14: .cfa -32 + ^ $r15: .cfa -24 + ^
STACK CFI INIT 15e00 6a0 .cfa: $rbp 16 + $rbp: .cfa -16 + ^ .ra: .cfa -8 + ^
STACK CFI INIT 164a0 2b0 .cfa: $rbp 16 + $rbp: .cfa -16 + ^ .ra: .cfa -8 + ^ $rbx: .cfa -56 + ^ $r12: .cfa -48 + ^ $r13: .cfa -40 + ^ $r14: .cfa -32 + ^ $r15: .cfa -24 + ^
STACK CFI INIT 16750 20 .cfa: $rbp 16 + $rbp: .cfa -16 + ^ .ra: .cfa -8 + ^ $rbx: .cfa -24 + ^
STACK CFI INIT 16770 70 .cfa: $rbp 16 + $rbp: .cfa -16 + ^ .ra: .cfa -8 + ^ $rbx: .cfa -32 + ^ $r14: .cfa -24 + ^
STACK CFI INIT 167e0 290 .cfa: $rbp 16 + $rbp: .cfa -16 + ^ .ra: .cfa -8 + ^ $rbx: .cfa -56 + ^ $r12: .cfa -48 + ^ $r13: .cfa -40 + ^ $r14: .cfa -32 + ^ $r15: .cfa -24 + ^
STACK CFI INIT 16a70 80 .cfa: $rbp 16 + $rbp: .cfa -16 + ^ .ra: .cfa -8 + ^
STACK CFI INIT 16af0 1e0 .cfa: $rbp 16 + $rbp: .cfa -16 + ^ .ra: .cfa -8 + ^ $rbx: .cfa -56 + ^ $r12: .cfa -48 + ^ $r13: .cfa -40 + ^ $r14: .cfa -32 + ^ $r15: .cfa -24 + ^
STACK CFI INIT 16cd0 a0 .cfa: $rbp 16 + $rbp: .cfa -16 + ^ .ra: .cfa -8 + ^
STACK CFI INIT 16d70 60 .cfa: $rbp 16 + $rbp: .cfa -16 + ^ .ra: .cfa -8 + ^ $rbx: .cfa -32 + ^ $r14: .cfa -24 + ^
STACK CFI INIT 16dd0 20 .cfa: $rbp 16 + $rbp: .cfa -16 + ^ .ra: .cfa -8 + ^
STACK CFI INIT 16df0 110 .cfa: $rbp 16 + $rbp: .cfa -16 + ^ .ra: .cfa -8 + ^ $rbx: .cfa -56 + ^ $r12: .cfa -48 + ^ $r13: .cfa -40 + ^ $r14: .cfa -32 + ^ $r15: .cfa -24 + ^
STACK CFI INIT 16f00 b0 .cfa: $rbp 16 + $rbp: .cfa -16 + ^ .ra: .cfa -8 + ^ $rbx: .cfa -56 + ^ $r12: .cfa -48 + ^ $r13: .cfa -40 + ^ $r14: .cfa -32 + ^ $r15: .cfa -24 + ^
STACK CFI INIT 16fb0 1b0 .cfa: $rbp 16 + $rbp: .cfa -16 + ^ .ra: .cfa -8 + ^ $rbx: .cfa -48 + ^ $r12: .cfa -40 + ^ $r14: .cfa -32 + ^ $r15: .cfa -24 + ^
STACK CFI INIT 17160 30 .cfa: $rbp 16 + $rbp: .cfa -16 + ^ .ra: .cfa -8 + ^
STACK CFI INIT 17190 90 .cfa: $rbp 16 + $rbp: .cfa -16 + ^ .ra: .cfa -8 + ^ $rbx: .cfa -48 + ^ $r12: .cfa -40 + ^ $r14: .cfa -32 + ^ $r15: .cfa -24 + ^
STACK CFI INIT 17220 30 .cfa: $rbp 16 + $rbp: .cfa -16 + ^ .ra: .cfa -8 + ^
STACK CFI INIT 17250 a0 .cfa: $rbp 16 + $rbp: .cfa -16 + ^ .ra: .cfa -8 + ^ $rbx: .cfa -56 + ^ $r12: .cfa -48 + ^ $r13: .cfa -40 + ^ $r14: .cfa -32 + ^ $r15: .cfa -24 + ^
STACK CFI INIT 172f0 c0 .cfa: $rbp 16 + $rbp: .cfa -16 + ^ .ra: .cfa -8 + ^ $rbx: .cfa -56 + ^ $r12: .cfa -48 + ^ $r13: .cfa -40 + ^ $r14: .cfa -32 + ^ $r15: .cfa -24 + ^
STACK CFI INIT 173b0 c0 .cfa: $rbp 16 + $rbp: .cfa -16 + ^ .ra: .cfa -8 + ^ $rbx: .cfa -56 + ^ $r12: .cfa -48 + ^ $r13: .cfa -40 + ^ $r14: .cfa -32 + ^ $r15: .cfa -24 + ^
STACK CFI INIT 17470 e0 .cfa: $rbp 16 + $rbp: .cfa -16 + ^ .ra: .cfa -8 + ^ $rbx: .cfa -56 + ^ $r12: .cfa -48 + ^ $r13: .cfa -40 + ^ $r14: .cfa -32 + ^ $r15: .cfa -24 + ^
STACK CFI INIT 17550 d0 .cfa: $rbp 16 + $rbp: .cfa -16 + ^ .ra: .cfa -8 + ^ $rbx: .cfa -56 + ^ $r12: .cfa -48 + ^ $r13: .cfa -40 + ^ $r14: .cfa -32 + ^ $r15: .cfa -24 + ^
STACK CFI INIT 17620 c0 .cfa: $rbp 16 + $rbp: .cfa -16 + ^ .ra: .cfa -8 + ^
STACK CFI INIT 176e0 90 .cfa: $rbp 16 + $rbp: .cfa -16 + ^ .ra: .cfa -8 + ^ $rbx: .cfa -48 + ^ $r12: .cfa -40 + ^ $r14: .cfa -32 + ^ $r15: .cfa -24 + ^
STACK CFI INIT 17770 50 .cfa: $rbp 16 + $rbp: .cfa -16 + ^ .ra: .cfa -8 + ^ $rbx: .cfa -32 + ^ $r14: .cfa -24 + ^
STACK CFI INIT 177c0 100 .cfa: $rbp 16 + $rbp: .cfa -16 + ^ .ra: .cfa -8 + ^
STACK CFI INIT 178c0 70 .cfa: $rbp 16 + $rbp: .cfa -16 + ^ .ra: .cfa -8 + ^ $rbx: .cfa -24 + ^
STACK CFI INIT 17930 120 .cfa: $rbp 16 + $rbp: .cfa -16 + ^ .ra: .cfa -8 + ^ $rbx: .cfa -48 + ^ $r12: .cfa -40 + ^ $r14: .cfa -32 + ^ $r15: .cfa -24 + ^
STACK CFI INIT 17a50 40 .cfa: $rbp 16 + $rbp: .cfa -16 + ^ .ra: .cfa -8 + ^
STACK CFI INIT 17a90 70 .cfa: $rbp 16 + $rbp: .cfa -16 + ^ .ra: .cfa -8 + ^ $rbx: .cfa -24 + ^
STACK CFI INIT 17b00 c0 .cfa: $rbp 16 + $rbp: .cfa -16 + ^ .ra: .cfa -8 + ^ $rbx: .cfa -32 + ^ $r14: .cfa -24 + ^
STACK CFI INIT 17bc0 80 .cfa: $rbp 16 + $rbp: .cfa -16 + ^ .ra: .cfa -8 + ^
STACK CFI INIT 17c40 140 .cfa: $rbp 16 + $rbp: .cfa -16 + ^ .ra: .cfa -8 + ^ $rbx: .cfa -56 + ^ $r12: .cfa -48 + ^ $r13: .cfa -40 + ^ $r14: .cfa -32 + ^ $r15: .cfa -24 + ^
STACK CFI INIT 17d80 40 .cfa: $rbp 16 + $rbp: .cfa -16 + ^ .ra: .cfa -8 + ^
STACK CFI INIT 17dc0 430 .cfa: $rbp 16 + $rbp: .cfa -16 + ^ .ra: .cfa -8 + ^ $rbx: .cfa -56 + ^ $r12: .cfa -48 + ^ $r13: .cfa -40 + ^ $r14: .cfa -32 + ^ $r15: .cfa -24 + ^
STACK CFI INIT 181f0 300 .cfa: $rbp 16 + $rbp: .cfa -16 + ^ .ra: .cfa -8 + ^ $rbx: .cfa -56 + ^ $r12: .cfa -48 + ^ $r13: .cfa -40 + ^ $r14: .cfa -32 + ^ $r15: .cfa -24 + ^
STACK CFI INIT 184f0 20 .cfa: $rbp 16 + $rbp: .cfa -16 + ^ .ra: .cfa -8 + ^
STACK CFI INIT 18510 ed0 .cfa: $rbp 16 + $rbp: .cfa -16 + ^ .ra: .cfa -8 + ^ $rbx: .cfa -56 + ^ $r12: .cfa -48 + ^ $r13: .cfa -40 + ^ $r14: .cfa -32 + ^ $r15: .cfa -24 + ^
STACK CFI INIT 193e0 390 .cfa: $rbp 16 + $rbp: .cfa -16 + ^ .ra: .cfa -8 + ^ $rbx: .cfa -56 + ^ $r12: .cfa -48 + ^ $r13: .cfa -40 + ^ $r14: .cfa -32 + ^ $r15: .cfa -24 + ^
STACK CFI INIT 19770 60 .cfa: $rbp 16 + $rbp: .cfa -16 + ^ .ra: .cfa -8 + ^ $rbx: .cfa -48 + ^ $r12: .cfa -40 + ^ $r14: .cfa -32 + ^ $r15: .cfa -24 + ^
STACK CFI INIT 197d0 120 .cfa: $rbp 16 + $rbp: .cfa -16 + ^ .ra: .cfa -8 + ^ $rbx: .cfa -56 + ^ $r12: .cfa -48 + ^ $r13: .cfa -40 + ^ $r14: .cfa -32 + ^ $r15: .cfa -24 + ^
STACK CFI INIT 198f0 4a0 .cfa: $rbp 16 + $rbp: .cfa -16 + ^ .ra: .cfa -8 + ^ $rbx: .cfa -56 + ^ $r12: .cfa -48 + ^ $r13: .cfa -40 + ^ $r14: .cfa -32 + ^ $r15: .cfa -24 + ^
STACK CFI INIT 19d90 2a0 .cfa: $rbp 16 + $rbp: .cfa -16 + ^ .ra: .cfa -8 + ^ $rbx: .cfa -56 + ^ $r12: .cfa -48 + ^ $r13: .cfa -40 + ^ $r14: .cfa -32 + ^ $r15: .cfa -24 + ^
STACK CFI INIT 1a030 d0 .cfa: $rbp 16 + $rbp: .cfa -16 + ^ .ra: .cfa -8 + ^ $rbx: .cfa -56 + ^ $r12: .cfa -48 + ^ $r13: .cfa -40 + ^ $r14: .cfa -32 + ^ $r15: .cfa -24 + ^
STACK CFI INIT 1a100 2d0 .cfa: $rbp 16 + $rbp: .cfa -16 + ^ .ra: .cfa -8 + ^ $rbx: .cfa -56 + ^ $r12: .cfa -48 + ^ $r13: .cfa -40 + ^ $r14: .cfa -32 + ^ $r15: .cfa -24 + ^
STACK CFI INIT 1a3d0 2c0 .cfa: $rbp 16 + $rbp: .cfa -16 + ^ .ra: .cfa -8 + ^ $rbx: .cfa -56 + ^ $r12: .cfa -48 + ^ $r13: .cfa -40 + ^ $r14: .cfa -32 + ^ $r15: .cfa -24 + ^
STACK CFI INIT 1a690 2d0 .cfa: $rbp 16 + $rbp: .cfa -16 + ^ .ra: .cfa -8 + ^ $rbx: .cfa -56 + ^ $r12: .cfa -48 + ^ $r13: .cfa -40 + ^ $r14: .cfa -32 + ^ $r15: .cfa -24 + ^
STACK CFI INIT 1a960 320 .cfa: $rbp 16 + $rbp: .cfa -16 + ^ .ra: .cfa -8 + ^ $rbx: .cfa -56 + ^ $r12: .cfa -48 + ^ $r13: .cfa -40 + ^ $r14: .cfa -32 + ^ $r15: .cfa -24 + ^
STACK CFI INIT 1ac80 3c0 .cfa: $rbp 16 + $rbp: .cfa -16 + ^ .ra: .cfa -8 + ^ $rbx: .cfa -56 + ^ $r12: .cfa -48 + ^ $r13: .cfa -40 + ^ $r14: .cfa -32 + ^ $r15: .cfa -24 + ^
STACK CFI INIT 1b040 310 .cfa: $rbp 16 + $rbp: .cfa -16 + ^ .ra: .cfa -8 + ^ $rbx: .cfa -56 + ^ $r12: .cfa -48 + ^ $r13: .cfa -40 + ^ $r14: .cfa -32 + ^ $r15: .cfa -24 + ^
STACK CFI INIT 1b350 240 .cfa: $rbp 16 + $rbp: .cfa -16 + ^ .ra: .cfa -8 + ^ $rbx: .cfa -56 + ^ $r12: .cfa -48 + ^ $r13: .cfa -40 + ^ $r14: .cfa -32 + ^ $r15: .cfa -24 + ^
STACK CFI INIT 1b590 150 .cfa: $rbp 16 + $rbp: .cfa -16 + ^ .ra: .cfa -8 + ^ $rbx: .cfa -56 + ^ $r12: .cfa -48 + ^ $r13: .cfa -40 + ^ $r14: .cfa -32 + ^ $r15: .cfa -24 + ^
STACK CFI INIT 1b6e0 150 .cfa: $rbp 16 + $rbp: .cfa -16 + ^ .ra: .cfa -8 + ^ $rbx: .cfa -56 + ^ $r12: .cfa -48 + ^ $r13: .cfa -40 + ^ $r14: .cfa -32 + ^ $r15: .cfa -24 + ^
STACK CFI INIT 1b830 190 .cfa: $rbp 16 + $rbp: .cfa -16 + ^ .ra: .cfa -8 + ^ $rbx: .cfa -56 + ^ $r12: .cfa -48 + ^ $r13: .cfa -40 + ^ $r14: .cfa -32 + ^ $r15: .cfa -24 + ^
STACK CFI INIT 1b9c0 1e0 .cfa: $rbp 16 + $rbp: .cfa -16 + ^ .ra: .cfa -8 + ^ $rbx: .cfa -56 + ^ $r12: .cfa -48 + ^ $r13: .cfa -40 + ^ $r14: .cfa -32 + ^ $r15: .cfa -24 + ^
STACK CFI INIT 1bba0 270 .cfa: $rbp 16 + $rbp: .cfa -16 + ^ .ra: .cfa -8 + ^ $rbx: .cfa -56 + ^ $r12: .cfa -48 + ^ $r13: .cfa -40 + ^ $r14: .cfa -32 + ^ $r15: .cfa -24 + ^
STACK CFI INIT 1be10 280 .cfa: $rbp 16 + $rbp: .cfa -16 + ^ .ra: .cfa -8 + ^ $rbx: .cfa -56 + ^ $r12: .cfa -48 + ^ $r13: .cfa -40 + ^ $r14: .cfa -32 + ^ $r15: .cfa -24 + ^
STACK CFI INIT 1c090 590 .cfa: $rbp 16 + $rbp: .cfa -16 + ^ .ra: .cfa -8 + ^ $rbx: .cfa -56 + ^ $r12: .cfa -48 + ^ $r13: .cfa -40 + ^ $r14: .cfa -32 + ^ $r15: .cfa -24 + ^
STACK CFI INIT 1c620 1a0 .cfa: $rbp 16 + $rbp: .cfa -16 + ^ .ra: .cfa -8 + ^ $rbx: .cfa -56 + ^ $r12: .cfa -48 + ^ $r13: .cfa -40 + ^ $r14: .cfa -32 + ^ $r15: .cfa -24 + ^
STACK CFI INIT 1c7c0 2f0 .cfa: $rbp 16 + $rbp: .cfa -16 + ^ .ra: .cfa -8 + ^ $rbx: .cfa -56 + ^ $r12: .cfa -48 + ^ $r13: .cfa -40 + ^ $r14: .cfa -32 + ^ $r15: .cfa -24 + ^
STACK CFI INIT 1cab0 230 .cfa: $rbp 16 + $rbp: .cfa -16 + ^ .ra: .cfa -8 + ^ $rbx: .cfa -56 + ^ $r12: .cfa -48 + ^ $r13: .cfa -40 + ^ $r14: .cfa -32 + ^ $r15: .cfa -24 + ^
STACK CFI INIT 1cce0 2b0 .cfa: $rbp 16 + $rbp: .cfa -16 + ^ .ra: .cfa -8 + ^ $rbx: .cfa -56 + ^ $r12: .cfa -48 + ^ $r13: .cfa -40 + ^ $r14: .cfa -32 + ^ $r15: .cfa -24 + ^
STACK CFI INIT 1cf90 660 .cfa: $rbp 16 + $rbp: .cfa -16 + ^ .ra: .cfa -8 + ^ $rbx: .cfa -56 + ^ $r12: .cfa -48 + ^ $r13: .cfa -40 + ^ $r14: .cfa -32 + ^ $r15: .cfa -24 + ^
STACK CFI INIT 1d5f0 3d0 .cfa: $rbp 16 + $rbp: .cfa -16 + ^ .ra: .cfa -8 + ^ $rbx: .cfa -56 + ^ $r12: .cfa -48 + ^ $r13: .cfa -40 + ^ $r14: .cfa -32 + ^ $r15: .cfa -24 + ^
STACK CFI INIT 1d9c0 270 .cfa: $rbp 16 + $rbp: .cfa -16 + ^ .ra: .cfa -8 + ^ $rbx: .cfa -56 + ^ $r12: .cfa -48 + ^ $r13: .cfa -40 + ^ $r14: .cfa -32 + ^ $r15: .cfa -24 + ^
STACK CFI INIT 1dc30 270 .cfa: $rbp 16 + $rbp: .cfa -16 + ^ .ra: .cfa -8 + ^ $rbx: .cfa -56 + ^ $r12: .cfa -48 + ^ $r13: .cfa -40 + ^ $r14: .cfa -32 + ^ $r15: .cfa -24 + ^
STACK CFI INIT 1dea0 2b0 .cfa: $rbp 16 + $rbp: .cfa -16 + ^ .ra: .cfa -8 + ^ $rbx: .cfa -56 + ^ $r12: .cfa -48 + ^ $r13: .cfa -40 + ^ $r14: .cfa -32 + ^ $r15: .cfa -24 + ^
STACK CFI INIT 1e150 170 .cfa: $rbp 16 + $rbp: .cfa -16 + ^ .ra: .cfa -8 + ^ $rbx: .cfa -56 + ^ $r12: .cfa -48 + ^ $r13: .cfa -40 + ^ $r14: .cfa -32 + ^ $r15: .cfa -24 + ^
STACK CFI INIT 1e2c0 170 .cfa: $rbp 16 + $rbp: .cfa -16 + ^ .ra: .cfa -8 + ^ $rbx: .cfa -56 + ^ $r12: .cfa -48 + ^ $r13: .cfa -40 + ^ $r14: .cfa -32 + ^ $r15: .cfa -24 + ^
STACK CFI INIT 1e430 a0 .cfa: $rbp 16 + $rbp: .cfa -16 + ^ .ra: .cfa -8 + ^ $rbx: .cfa -48 + ^ $r12: .cfa -40 + ^ $r14: .cfa -32 + ^ $r15: .cfa -24 + ^
STACK CFI INIT 1e4d0 130 .cfa: $rbp 16 + $rbp: .cfa -16 + ^ .ra: .cfa -8 + ^ $rbx: .cfa -56 + ^ $r12: .cfa -48 + ^ $r13: .cfa -40 + ^ $r14: .cfa -32 + ^ $r15: .cfa -24 + ^
STACK CFI INIT 1e600 170 .cfa: $rbp 16 + $rbp: .cfa -16 + ^ .ra: .cfa -8 + ^ $rbx: .cfa -56 + ^ $r12: .cfa -48 + ^ $r13: .cfa -40 + ^ $r14: .cfa -32 + ^ $r15: .cfa -24 + ^
STACK CFI INIT 1e770 170 .cfa: $rbp 16 + $rbp: .cfa -16 + ^ .ra: .cfa -8 + ^ $rbx: .cfa -56 + ^ $r12: .cfa -48 + ^ $r13: .cfa -40 + ^ $r14: .cfa -32 + ^ $r15: .cfa -24 + ^
STACK CFI INIT 1e8e0 7e0 .cfa: $rbp 16 + $rbp: .cfa -16 + ^ .ra: .cfa -8 + ^ $rbx: .cfa -56 + ^ $r12: .cfa -48 + ^ $r13: .cfa -40 + ^ $r14: .cfa -32 + ^ $r15: .cfa -24 + ^
STACK CFI INIT 1f0c0 330 .cfa: $rbp 16 + $rbp: .cfa -16 + ^ .ra: .cfa -8 + ^ $rbx: .cfa -56 + ^ $r12: .cfa -48 + ^ $r13: .cfa -40 + ^ $r14: .cfa -32 + ^ $r15: .cfa -24 + ^
STACK CFI INIT 1f3f0 240 .cfa: $rbp 16 + $rbp: .cfa -16 + ^ .ra: .cfa -8 + ^ $rbx: .cfa -56 + ^ $r12: .cfa -48 + ^ $r13: .cfa -40 + ^ $r14: .cfa -32 + ^ $r15: .cfa -24 + ^
STACK CFI INIT 1f630 230 .cfa: $rbp 16 + $rbp: .cfa -16 + ^ .ra: .cfa -8 + ^ $rbx: .cfa -56 + ^ $r12: .cfa -48 + ^ $r13: .cfa -40 + ^ $r14: .cfa -32 + ^ $r15: .cfa -24 + ^
STACK CFI INIT 1f860 330 .cfa: $rbp 16 + $rbp: .cfa -16 + ^ .ra: .cfa -8 + ^ $rbx: .cfa -56 + ^ $r12: .cfa -48 + ^ $r13: .cfa -40 + ^ $r14: .cfa -32 + ^ $r15: .cfa -24 + ^
STACK CFI INIT 1fb90 230 .cfa: $rbp 16 + $rbp: .cfa -16 + ^ .ra: .cfa -8 + ^ $rbx: .cfa -56 + ^ $r12: .cfa -48 + ^ $r13: .cfa -40 + ^ $r14: .cfa -32 + ^ $r15: .cfa -24 + ^
STACK CFI INIT 1fdc0 710 .cfa: $rbp 16 + $rbp: .cfa -16 + ^ .ra: .cfa -8 + ^ $rbx: .cfa -56 + ^ $r12: .cfa -48 + ^ $r13: .cfa -40 + ^ $r14: .cfa -32 + ^ $r15: .cfa -24 + ^
STACK CFI INIT 204d0 340 .cfa: $rbp 16 + $rbp: .cfa -16 + ^ .ra: .cfa -8 + ^ $rbx: .cfa -56 + ^ $r12: .cfa -48 + ^ $r13: .cfa -40 + ^ $r14: .cfa -32 + ^ $r15: .cfa -24 + ^
STACK CFI INIT 20810 110 .cfa: $rbp 16 + $rbp: .cfa -16 + ^ .ra: .cfa -8 + ^ $rbx: .cfa -56 + ^ $r12: .cfa -48 + ^ $r13: .cfa -40 + ^ $r14: .cfa -32 + ^ $r15: .cfa -24 + ^
STACK CFI INIT 20920 210 .cfa: $rbp 16 + $rbp: .cfa -16 + ^ .ra: .cfa -8 + ^ $rbx: .cfa -56 + ^ $r12: .cfa -48 + ^ $r13: .cfa -40 + ^ $r14: .cfa -32 + ^ $r15: .cfa -24 + ^
STACK CFI INIT 20b30 200 .cfa: $rbp 16 + $rbp: .cfa -16 + ^ .ra: .cfa -8 + ^ $rbx: .cfa -56 + ^ $r12: .cfa -48 + ^ $r13: .cfa -40 + ^ $r14: .cfa -32 + ^ $r15: .cfa -24 + ^
STACK CFI INIT 20d30 200 .cfa: $rbp 16 + $rbp: .cfa -16 + ^ .ra: .cfa -8 + ^ $rbx: .cfa -56 + ^ $r12: .cfa -48 + ^ $r13: .cfa -40 + ^ $r14: .cfa -32 + ^ $r15: .cfa -24 + ^
STACK CFI INIT 20f30 310 .cfa: $rbp 16 + $rbp: .cfa -16 + ^ .ra: .cfa -8 + ^ $rbx: .cfa -56 + ^ $r12: .cfa -48 + ^ $r13: .cfa -40 + ^ $r14: .cfa -32 + ^ $r15: .cfa -24 + ^
STACK CFI INIT 21240 250 .cfa: $rbp 16 + $rbp: .cfa -16 + ^ .ra: .cfa -8 + ^ $rbx: .cfa -56 + ^ $r12: .cfa -48 + ^ $r13: .cfa -40 + ^ $r14: .cfa -32 + ^ $r15: .cfa -24 + ^
STACK CFI INIT 21490 150 .cfa: $rbp 16 + $rbp: .cfa -16 + ^ .ra: .cfa -8 + ^ $rbx: .cfa -56 + ^ $r12: .cfa -48 + ^ $r13: .cfa -40 + ^ $r14: .cfa -32 + ^ $r15: .cfa -24 + ^
STACK CFI INIT 215e0 200 .cfa: $rbp 16 + $rbp: .cfa -16 + ^ .ra: .cfa -8 + ^ $rbx: .cfa -56 + ^ $r12: .cfa -48 + ^ $r13: .cfa -40 + ^ $r14: .cfa -32 + ^ $r15: .cfa -24 + ^
STACK CFI INIT 217e0 1f0 .cfa: $rbp 16 + $rbp: .cfa -16 + ^ .ra: .cfa -8 + ^ $rbx: .cfa -48 + ^ $r12: .cfa -40 + ^ $r14: .cfa -32 + ^ $r15: .cfa -24 + ^
STACK CFI INIT 219d0 220 .cfa: $rbp 16 + $rbp: .cfa -16 + ^ .ra: .cfa -8 + ^ $rbx: .cfa -56 + ^ $r12: .cfa -48 + ^ $r13: .cfa -40 + ^ $r14: .cfa -32 + ^ $r15: .cfa -24 + ^
STACK CFI INIT 21bf0 12d0 .cfa: $rbp 16 + $rbp: .cfa -16 + ^ .ra: .cfa -8 + ^ $rbx: .cfa -56 + ^ $r12: .cfa -48 + ^ $r13: .cfa -40 + ^ $r14: .cfa -32 + ^ $r15: .cfa -24 + ^
STACK CFI INIT 22ec0 150 .cfa: $rbp 16 + $rbp: .cfa -16 + ^ .ra: .cfa -8 + ^ $rbx: .cfa -56 + ^ $r12: .cfa -48 + ^ $r13: .cfa -40 + ^ $r14: .cfa -32 + ^ $r15: .cfa -24 + ^
STACK CFI INIT 23010 140 .cfa: $rbp 16 + $rbp: .cfa -16 + ^ .ra: .cfa -8 + ^ $rbx: .cfa -48 + ^ $r12: .cfa -40 + ^ $r14: .cfa -32 + ^ $r15: .cfa -24 + ^
STACK CFI INIT 23150 c0 .cfa: $rbp 16 + $rbp: .cfa -16 + ^ .ra: .cfa -8 + ^ $rbx: .cfa -40 + ^ $r14: .cfa -32 + ^ $r15: .cfa -24 + ^
STACK CFI INIT 23210 100 .cfa: $rbp 16 + $rbp: .cfa -16 + ^ .ra: .cfa -8 + ^ $rbx: .cfa -56 + ^ $r12: .cfa -48 + ^ $r13: .cfa -40 + ^ $r14: .cfa -32 + ^ $r15: .cfa -24 + ^
STACK CFI INIT 23310 e90 .cfa: $rbp 16 + $rbp: .cfa -16 + ^ .ra: .cfa -8 + ^ $rbx: .cfa -40 + ^ $r14: .cfa -32 + ^ $r15: .cfa -24 + ^
STACK CFI INIT 241a0 a0 .cfa: $rbp 16 + $rbp: .cfa -16 + ^ .ra: .cfa -8 + ^ $rbx: .cfa -32 + ^ $r14: .cfa -24 + ^
STACK CFI INIT 24240 a0 .cfa: $rbp 16 + $rbp: .cfa -16 + ^ .ra: .cfa -8 + ^
STACK CFI INIT 242e0 60 .cfa: $rbp 16 + $rbp: .cfa -16 + ^ .ra: .cfa -8 + ^ $rbx: .cfa -32 + ^ $r14: .cfa -24 + ^
STACK CFI INIT 24340 30 .cfa: $rbp 16 + $rbp: .cfa -16 + ^ .ra: .cfa -8 + ^
STACK CFI INIT 24370 b0 .cfa: $rbp 16 + $rbp: .cfa -16 + ^ .ra: .cfa -8 + ^ $rbx: .cfa -48 + ^ $r12: .cfa -40 + ^ $r14: .cfa -32 + ^ $r15: .cfa -24 + ^
STACK CFI INIT 24420 20 .cfa: $rbp 16 + $rbp: .cfa -16 + ^ .ra: .cfa -8 + ^
STACK CFI INIT 24440 90 .cfa: $rbp 16 + $rbp: .cfa -16 + ^ .ra: .cfa -8 + ^ $rbx: .cfa -48 + ^ $r12: .cfa -40 + ^ $r14: .cfa -32 + ^ $r15: .cfa -24 + ^
STACK CFI INIT 244d0 50 .cfa: $rbp 16 + $rbp: .cfa -16 + ^ .ra: .cfa -8 + ^ $rbx: .cfa -32 + ^ $r14: .cfa -24 + ^
STACK CFI INIT 24520 90 .cfa: $rbp 16 + $rbp: .cfa -16 + ^ .ra: .cfa -8 + ^ $rbx: .cfa -48 + ^ $r12: .cfa -40 + ^ $r14: .cfa -32 + ^ $r15: .cfa -24 + ^
STACK CFI INIT 245b0 50 .cfa: $rbp 16 + $rbp: .cfa -16 + ^ .ra: .cfa -8 + ^
STACK CFI INIT 24600 140 .cfa: $rbp 16 + $rbp: .cfa -16 + ^ .ra: .cfa -8 + ^ $rbx: .cfa -48 + ^ $r12: .cfa -40 + ^ $r14: .cfa -32 + ^ $r15: .cfa -24 + ^
STACK CFI INIT 24740 d0 .cfa: $rbp 16 + $rbp: .cfa -16 + ^ .ra: .cfa -8 + ^ $rbx: .cfa -48 + ^ $r12: .cfa -40 + ^ $r14: .cfa -32 + ^ $r15: .cfa -24 + ^
STACK CFI INIT 24810 90 .cfa: $rbp 16 + $rbp: .cfa -16 + ^ .ra: .cfa -8 + ^ $rbx: .cfa -40 + ^ $r14: .cfa -32 + ^ $r15: .cfa -24 + ^
STACK CFI INIT 248a0 60 .cfa: $rbp 16 + $rbp: .cfa -16 + ^ .ra: .cfa -8 + ^ $rbx: .cfa -24 + ^
STACK CFI INIT 24900 140 .cfa: $rbp 16 + $rbp: .cfa -16 + ^ .ra: .cfa -8 + ^ $rbx: .cfa -48 + ^ $r12: .cfa -40 + ^ $r14: .cfa -32 + ^ $r15: .cfa -24 + ^
STACK CFI INIT 24a40 10 .cfa: $rbp 16 + $rbp: .cfa -16 + ^ .ra: .cfa -8 + ^
STACK CFI INIT 24a50 b0 .cfa: $rbp 16 + $rbp: .cfa -16 + ^ .ra: .cfa -8 + ^ $rbx: .cfa -48 + ^ $r12: .cfa -40 + ^ $r14: .cfa -32 + ^ $r15: .cfa -24 + ^
STACK CFI INIT 24b00 a0 .cfa: $rbp 16 + $rbp: .cfa -16 + ^ .ra: .cfa -8 + ^ $rbx: .cfa -40 + ^ $r14: .cfa -32 + ^ $r15: .cfa -24 + ^
STACK CFI INIT 24ba0 90 .cfa: $rbp 16 + $rbp: .cfa -16 + ^ .ra: .cfa -8 + ^ $rbx: .cfa -32 + ^ $r14: .cfa -24 + ^
STACK CFI INIT 24c30 110 .cfa: $rbp 16 + $rbp: .cfa -16 + ^ .ra: .cfa -8 + ^ $rbx: .cfa -40 + ^ $r14: .cfa -32 + ^ $r15: .cfa -24 + ^
STACK CFI INIT 24d40 140 .cfa: $rbp 16 + $rbp: .cfa -16 + ^ .ra: .cfa -8 + ^ $rbx: .cfa -48 + ^ $r12: .cfa -40 + ^ $r14: .cfa -32 + ^ $r15: .cfa -24 + ^
STACK CFI INIT 24e80 20 .cfa: $rbp 16 + $rbp: .cfa -16 + ^ .ra: .cfa -8 + ^
STACK CFI INIT 24ea0 4e0 .cfa: $rbp 16 + $rbp: .cfa -16 + ^ .ra: .cfa -8 + ^ $rbx: .cfa -56 + ^ $r12: .cfa -48 + ^ $r13: .cfa -40 + ^ $r14: .cfa -32 + ^ $r15: .cfa -24 + ^
STACK CFI INIT 25380 1a0 .cfa: $rbp 16 + $rbp: .cfa -16 + ^ .ra: .cfa -8 + ^ $rbx: .cfa -24 + ^
STACK CFI INIT 25520 c0 .cfa: $rbp 16 + $rbp: .cfa -16 + ^ .ra: .cfa -8 + ^ $rbx: .cfa -48 + ^ $r12: .cfa -40 + ^ $r14: .cfa -32 + ^ $r15: .cfa -24 + ^
STACK CFI INIT 255e0 d0 .cfa: $rbp 16 + $rbp: .cfa -16 + ^ .ra: .cfa -8 + ^ $rbx: .cfa -32 + ^ $r14: .cfa -24 + ^
STACK CFI INIT 256b0 2c0 .cfa: $rbp 16 + $rbp: .cfa -16 + ^ .ra: .cfa -8 + ^ $rbx: .cfa -56 + ^ $r12: .cfa -48 + ^ $r13: .cfa -40 + ^ $r14: .cfa -32 + ^ $r15: .cfa -24 + ^
STACK CFI INIT 25970 1d0 .cfa: $rbp 16 + $rbp: .cfa -16 + ^ .ra: .cfa -8 + ^ $rbx: .cfa -56 + ^ $r12: .cfa -48 + ^ $r13: .cfa -40 + ^ $r14: .cfa -32 + ^ $r15: .cfa -24 + ^
STACK CFI INIT 25b40 e0 .cfa: $rbp 16 + $rbp: .cfa -16 + ^ .ra: .cfa -8 + ^ $rbx: .cfa -40 + ^ $r14: .cfa -32 + ^ $r15: .cfa -24 + ^
STACK CFI INIT 25c20 160 .cfa: $rbp 16 + $rbp: .cfa -16 + ^ .ra: .cfa -8 + ^ $rbx: .cfa -56 + ^ $r12: .cfa -48 + ^ $r13: .cfa -40 + ^ $r14: .cfa -32 + ^ $r15: .cfa -24 + ^
STACK CFI INIT 25d80 140 .cfa: $rbp 16 + $rbp: .cfa -16 + ^ .ra: .cfa -8 + ^ $rbx: .cfa -56 + ^ $r12: .cfa -48 + ^ $r13: .cfa -40 + ^ $r14: .cfa -32 + ^ $r15: .cfa -24 + ^
STACK CFI INIT 25ec0 150 .cfa: $rbp 16 + $rbp: .cfa -16 + ^ .ra: .cfa -8 + ^ $rbx: .cfa -56 + ^ $r12: .cfa -48 + ^ $r13: .cfa -40 + ^ $r14: .cfa -32 + ^ $r15: .cfa -24 + ^
STACK CFI INIT 26010 150 .cfa: $rbp 16 + $rbp: .cfa -16 + ^ .ra: .cfa -8 + ^ $rbx: .cfa -56 + ^ $r12: .cfa -48 + ^ $r13: .cfa -40 + ^ $r14: .cfa -32 + ^ $r15: .cfa -24 + ^
STACK CFI INIT 26160 40 .cfa: $rbp 16 + $rbp: .cfa -16 + ^ .ra: .cfa -8 + ^
STACK CFI INIT 261a0 520 .cfa: $rbp 16 + $rbp: .cfa -16 + ^ .ra: .cfa -8 + ^ $rbx: .cfa -56 + ^ $r12: .cfa -48 + ^ $r13: .cfa -40 + ^ $r14: .cfa -32 + ^ $r15: .cfa -24 + ^
STACK CFI INIT 266c0 400 .cfa: $rbp 16 + $rbp: .cfa -16 + ^ .ra: .cfa -8 + ^ $rbx: .cfa -56 + ^ $r12: .cfa -48 + ^ $r13: .cfa -40 + ^ $r14: .cfa -32 + ^ $r15: .cfa -24 + ^
STACK CFI INIT 26ac0 3c0 .cfa: $rbp 16 + $rbp: .cfa -16 + ^ .ra: .cfa -8 + ^ $rbx: .cfa -56 + ^ $r12: .cfa -48 + ^ $r13: .cfa -40 + ^ $r14: .cfa -32 + ^ $r15: .cfa -24 + ^
STACK CFI INIT 26e80 7f0 .cfa: $rbp 16 + $rbp: .cfa -16 + ^ .ra: .cfa -8 + ^ $rbx: .cfa -56 + ^ $r12: .cfa -48 + ^ $r13: .cfa -40 + ^ $r14: .cfa -32 + ^ $r15: .cfa -24 + ^
STACK CFI INIT 27670 5f0 .cfa: $rbp 16 + $rbp: .cfa -16 + ^ .ra: .cfa -8 + ^ $rbx: .cfa -56 + ^ $r12: .cfa -48 + ^ $r13: .cfa -40 + ^ $r14: .cfa -32 + ^ $r15: .cfa -24 + ^
STACK CFI INIT 27c60 3c0 .cfa: $rbp 16 + $rbp: .cfa -16 + ^ .ra: .cfa -8 + ^ $rbx: .cfa -56 + ^ $r12: .cfa -48 + ^ $r13: .cfa -40 + ^ $r14: .cfa -32 + ^ $r15: .cfa -24 + ^
STACK CFI INIT 28020 350 .cfa: $rbp 16 + $rbp: .cfa -16 + ^ .ra: .cfa -8 + ^ $rbx: .cfa -56 + ^ $r12: .cfa -48 + ^ $r13: .cfa -40 + ^ $r14: .cfa -32 + ^ $r15: .cfa -24 + ^
STACK CFI INIT 28370 360 .cfa: $rbp 16 + $rbp: .cfa -16 + ^ .ra: .cfa -8 + ^ $rbx: .cfa -56 + ^ $r12: .cfa -48 + ^ $r13: .cfa -40 + ^ $r14: .cfa -32 + ^ $r15: .cfa -24 + ^
STACK CFI INIT 286d0 290 .cfa: $rbp 16 + $rbp: .cfa -16 + ^ .ra: .cfa -8 + ^ $rbx: .cfa -56 + ^ $r12: .cfa -48 + ^ $r13: .cfa -40 + ^ $r14: .cfa -32 + ^ $r15: .cfa -24 + ^
STACK CFI INIT 28960 540 .cfa: $rbp 16 + $rbp: .cfa -16 + ^ .ra: .cfa -8 + ^ $rbx: .cfa -56 + ^ $r12: .cfa -48 + ^ $r13: .cfa -40 + ^ $r14: .cfa -32 + ^ $r15: .cfa -24 + ^
STACK CFI INIT 28ea0 4a0 .cfa: $rbp 16 + $rbp: .cfa -16 + ^ .ra: .cfa -8 + ^ $rbx: .cfa -56 + ^ $r12: .cfa -48 + ^ $r13: .cfa -40 + ^ $r14: .cfa -32 + ^ $r15: .cfa -24 + ^
STACK CFI INIT 29340 540 .cfa: $rbp 16 + $rbp: .cfa -16 + ^ .ra: .cfa -8 + ^ $rbx: .cfa -56 + ^ $r12: .cfa -48 + ^ $r13: .cfa -40 + ^ $r14: .cfa -32 + ^ $r15: .cfa -24 + ^
STACK CFI INIT 29880 4a0 .cfa: $rbp 16 + $rbp: .cfa -16 + ^ .ra: .cfa -8 + ^ $rbx: .cfa -56 + ^ $r12: .cfa -48 + ^ $r13: .cfa -40 + ^ $r14: .cfa -32 + ^ $r15: .cfa -24 + ^
STACK CFI INIT 29d20 540 .cfa: $rbp 16 + $rbp: .cfa -16 + ^ .ra: .cfa -8 + ^ $rbx: .cfa -56 + ^ $r12: .cfa -48 + ^ $r13: .cfa -40 + ^ $r14: .cfa -32 + ^ $r15: .cfa -24 + ^
STACK CFI INIT 2a260 3c0 .cfa: $rbp 16 + $rbp: .cfa -16 + ^ .ra: .cfa -8 + ^ $rbx: .cfa -56 + ^ $r12: .cfa -48 + ^ $r13: .cfa -40 + ^ $r14: .cfa -32 + ^ $r15: .cfa -24 + ^
STACK CFI INIT 2a620 6a0 .cfa: $rbp 16 + $rbp: .cfa -16 + ^ .ra: .cfa -8 + ^ $rbx: .cfa -56 + ^ $r12: .cfa -48 + ^ $r13: .cfa -40 + ^ $r14: .cfa -32 + ^ $r15: .cfa -24 + ^
STACK CFI INIT 2acc0 3c0 .cfa: $rbp 16 + $rbp: .cfa -16 + ^ .ra: .cfa -8 + ^ $rbx: .cfa -56 + ^ $r12: .cfa -48 + ^ $r13: .cfa -40 + ^ $r14: .cfa -32 + ^ $r15: .cfa -24 + ^
STACK CFI INIT 2b080 15a0 .cfa: $rbp 16 + $rbp: .cfa -16 + ^ .ra: .cfa -8 + ^ $rbx: .cfa -56 + ^ $r12: .cfa -48 + ^ $r13: .cfa -40 + ^ $r14: .cfa -32 + ^ $r15: .cfa -24 + ^
STACK CFI INIT 2c620 290 .cfa: $rbp 16 + $rbp: .cfa -16 + ^ .ra: .cfa -8 + ^ $rbx: .cfa -56 + ^ $r12: .cfa -48 + ^ $r13: .cfa -40 + ^ $r14: .cfa -32 + ^ $r15: .cfa -24 + ^
STACK CFI INIT 2c8b0 70 .cfa: $rbp 16 + $rbp: .cfa -16 + ^ .ra: .cfa -8 + ^
STACK CFI INIT 2c920 1b0 .cfa: $rbp 16 + $rbp: .cfa -16 + ^ .ra: .cfa -8 + ^ $rbx: .cfa -56 + ^ $r12: .cfa -48 + ^ $r13: .cfa -40 + ^ $r14: .cfa -32 + ^ $r15: .cfa -24 + ^
STACK CFI INIT 2cad0 30 .cfa: $rbp 16 + $rbp: .cfa -16 + ^ .ra: .cfa -8 + ^
STACK CFI INIT 2cb00 90 .cfa: $rbp 16 + $rbp: .cfa -16 + ^ .ra: .cfa -8 + ^ $rbx: .cfa -48 + ^ $r12: .cfa -40 + ^ $r14: .cfa -32 + ^ $r15: .cfa -24 + ^
STACK CFI INIT 2cb90 30 .cfa: $rbp 16 + $rbp: .cfa -16 + ^ .ra: .cfa -8 + ^
STACK CFI INIT 2cbc0 90 .cfa: $rbp 16 + $rbp: .cfa -16 + ^ .ra: .cfa -8 + ^ $rbx: .cfa -48 + ^ $r12: .cfa -40 + ^ $r14: .cfa -32 + ^ $r15: .cfa -24 + ^
STACK CFI INIT 2cc50 90 .cfa: $rbp 16 + $rbp: .cfa -16 + ^ .ra: .cfa -8 + ^
STACK CFI INIT 2cce0 a0 .cfa: $rbp 16 + $rbp: .cfa -16 + ^ .ra: .cfa -8 + ^ $rbx: .cfa -48 + ^ $r12: .cfa -40 + ^ $r14: .cfa -32 + ^ $r15: .cfa -24 + ^
STACK CFI INIT 2cd80 e0 .cfa: $rbp 16 + $rbp: .cfa -16 + ^ .ra: .cfa -8 + ^
STACK CFI INIT 2ce60 50 .cfa: $rbp 16 + $rbp: .cfa -16 + ^ .ra: .cfa -8 + ^ $rbx: .cfa -24 + ^
STACK CFI INIT 2ceb0 10 .cfa: $rbp 16 + $rbp: .cfa -16 + ^ .ra: .cfa -8 + ^
STACK CFI INIT 2cec0 290 .cfa: $rbp 16 + $rbp: .cfa -16 + ^ .ra: .cfa -8 + ^ $rbx: .cfa -56 + ^ $r12: .cfa -48 + ^ $r13: .cfa -40 + ^ $r14: .cfa -32 + ^ $r15: .cfa -24 + ^
STACK CFI INIT 2d150 2f0 .cfa: $rbp 16 + $rbp: .cfa -16 + ^ .ra: .cfa -8 + ^ $rbx: .cfa -56 + ^ $r12: .cfa -48 + ^ $r13: .cfa -40 + ^ $r14: .cfa -32 + ^ $r15: .cfa -24 + ^
STACK CFI INIT 2d440 1f0 .cfa: $rbp 16 + $rbp: .cfa -16 + ^ .ra: .cfa -8 + ^ $rbx: .cfa -56 + ^ $r12: .cfa -48 + ^ $r13: .cfa -40 + ^ $r14: .cfa -32 + ^ $r15: .cfa -24 + ^
STACK CFI INIT 2d630 190 .cfa: $rbp 16 + $rbp: .cfa -16 + ^ .ra: .cfa -8 + ^ $rbx: .cfa -56 + ^ $r12: .cfa -48 + ^ $r13: .cfa -40 + ^ $r14: .cfa -32 + ^ $r15: .cfa -24 + ^
STACK CFI INIT 2d7c0 110 .cfa: $rbp 16 + $rbp: .cfa -16 + ^ .ra: .cfa -8 + ^
STACK CFI INIT 2d8d0 110 .cfa: $rbp 16 + $rbp: .cfa -16 + ^ .ra: .cfa -8 + ^ $rbx: .cfa -56 + ^ $r12: .cfa -48 + ^ $r13: .cfa -40 + ^ $r14: .cfa -32 + ^ $r15: .cfa -24 + ^
STACK CFI INIT 2d9e0 260 .cfa: $rbp 16 + $rbp: .cfa -16 + ^ .ra: .cfa -8 + ^ $rbx: .cfa -56 + ^ $r12: .cfa -48 + ^ $r13: .cfa -40 + ^ $r14: .cfa -32 + ^ $r15: .cfa -24 + ^
STACK CFI INIT 2dc40 130 .cfa: $rbp 16 + $rbp: .cfa -16 + ^ .ra: .cfa -8 + ^ $rbx: .cfa -56 + ^ $r12: .cfa -48 + ^ $r13: .cfa -40 + ^ $r14: .cfa -32 + ^ $r15: .cfa -24 + ^
STACK CFI INIT 2dd70 10 .cfa: $rbp 16 + $rbp: .cfa -16 + ^ .ra: .cfa -8 + ^
STACK CFI INIT 2dd80 1c0 .cfa: $rbp 16 + $rbp: .cfa -16 + ^ .ra: .cfa -8 + ^ $rbx: .cfa -56 + ^ $r12: .cfa -48 + ^ $r13: .cfa -40 + ^ $r14: .cfa -32 + ^ $r15: .cfa -24 + ^
STACK CFI INIT 2df40 d0 .cfa: $rbp 16 + $rbp: .cfa -16 + ^ .ra: .cfa -8 + ^
STACK CFI INIT 2e010 c0 .cfa: $rbp 16 + $rbp: .cfa -16 + ^ .ra: .cfa -8 + ^ $rbx: .cfa -56 + ^ $r12: .cfa -48 + ^ $r13: .cfa -40 + ^ $r14: .cfa -32 + ^ $r15: .cfa -24 + ^
STACK CFI INIT 2e0d0 c0 .cfa: $rbp 16 + $rbp: .cfa -16 + ^ .ra: .cfa -8 + ^
STACK CFI INIT 2e190 6b0 .cfa: $rbp 16 + $rbp: .cfa -16 + ^ .ra: .cfa -8 + ^ $rbx: .cfa -56 + ^ $r12: .cfa -48 + ^ $r13: .cfa -40 + ^ $r14: .cfa -32 + ^ $r15: .cfa -24 + ^
STACK CFI INIT 2e840 320 .cfa: $rbp 16 + $rbp: .cfa -16 + ^ .ra: .cfa -8 + ^ $rbx: .cfa -56 + ^ $r12: .cfa -48 + ^ $r13: .cfa -40 + ^ $r14: .cfa -32 + ^ $r15: .cfa -24 + ^
STACK CFI INIT 2eb60 e90 .cfa: $rbp 16 + $rbp: .cfa -16 + ^ .ra: .cfa -8 + ^ $rbx: .cfa -40 + ^ $r14: .cfa -32 + ^ $r15: .cfa -24 + ^
STACK CFI INIT 2f9f0 190 .cfa: $rbp 16 + $rbp: .cfa -16 + ^ .ra: .cfa -8 + ^
STACK CFI INIT 2fb80 180 .cfa: $rbp 16 + $rbp: .cfa -16 + ^ .ra: .cfa -8 + ^ $rbx: .cfa -56 + ^ $r12: .cfa -48 + ^ $r13: .cfa -40 + ^ $r14: .cfa -32 + ^ $r15: .cfa -24 + ^
STACK CFI INIT 2fd00 580 .cfa: $rbp 16 + $rbp: .cfa -16 + ^ .ra: .cfa -8 + ^ $rbx: .cfa -48 + ^ $r12: .cfa -40 + ^ $r14: .cfa -32 + ^ $r15: .cfa -24 + ^
STACK CFI INIT 30280 530 .cfa: $rbp 16 + $rbp: .cfa -16 + ^ .ra: .cfa -8 + ^ $rbx: .cfa -56 + ^ $r12: .cfa -48 + ^ $r13: .cfa -40 + ^ $r14: .cfa -32 + ^ $r15: .cfa -24 + ^
STACK CFI INIT 307b0 560 .cfa: $rbp 16 + $rbp: .cfa -16 + ^ .ra: .cfa -8 + ^ $rbx: .cfa -56 + ^ $r12: .cfa -48 + ^ $r13: .cfa -40 + ^ $r14: .cfa -32 + ^ $r15: .cfa -24 + ^
STACK CFI INIT 30d10 f0 .cfa: $rbp 16 + $rbp: .cfa -16 + ^ .ra: .cfa -8 + ^
STACK CFI INIT 30e00 c0 .cfa: $rbp 16 + $rbp: .cfa -16 + ^ .ra: .cfa -8 + ^ $rbx: .cfa -56 + ^ $r12: .cfa -48 + ^ $r13: .cfa -40 + ^ $r14: .cfa -32 + ^ $r15: .cfa -24 + ^
STACK CFI INIT 30ec0 c0 .cfa: $rbp 16 + $rbp: .cfa -16 + ^ .ra: .cfa -8 + ^ $rbx: .cfa -32 + ^ $r14: .cfa -24 + ^
STACK CFI INIT 30f80 10 .cfa: $rbp 16 + $rbp: .cfa -16 + ^ .ra: .cfa -8 + ^
STACK CFI INIT 30f90 5d0 .cfa: $rbp 16 + $rbp: .cfa -16 + ^ .ra: .cfa -8 + ^ $rbx: .cfa -56 + ^ $r12: .cfa -48 + ^ $r13: .cfa -40 + ^ $r14: .cfa -32 + ^ $r15: .cfa -24 + ^
STACK CFI INIT 31560 70 .cfa: $rbp 16 + $rbp: .cfa -16 + ^ .ra: .cfa -8 + ^ $rbx: .cfa -32 + ^ $r14: .cfa -24 + ^
STACK CFI INIT 315d0 100 .cfa: $rbp 16 + $rbp: .cfa -16 + ^ .ra: .cfa -8 + ^ $rbx: .cfa -56 + ^ $r12: .cfa -48 + ^ $r13: .cfa -40 + ^ $r14: .cfa -32 + ^ $r15: .cfa -24 + ^
STACK CFI INIT 316d0 100 .cfa: $rbp 16 + $rbp: .cfa -16 + ^ .ra: .cfa -8 + ^ $rbx: .cfa -56 + ^ $r12: .cfa -48 + ^ $r13: .cfa -40 + ^ $r14: .cfa -32 + ^ $r15: .cfa -24 + ^
STACK CFI INIT 317d0 260 .cfa: $rbp 16 + $rbp: .cfa -16 + ^ .ra: .cfa -8 + ^ $rbx: .cfa -56 + ^ $r12: .cfa -48 + ^ $r13: .cfa -40 + ^ $r14: .cfa -32 + ^ $r15: .cfa -24 + ^
STACK CFI INIT 31a30 550 .cfa: $rbp 16 + $rbp: .cfa -16 + ^ .ra: .cfa -8 + ^ $rbx: .cfa -56 + ^ $r12: .cfa -48 + ^ $r13: .cfa -40 + ^ $r14: .cfa -32 + ^ $r15: .cfa -24 + ^
STACK CFI INIT 31f80 1e0 .cfa: $rbp 16 + $rbp: .cfa -16 + ^ .ra: .cfa -8 + ^ $rbx: .cfa -56 + ^ $r12: .cfa -48 + ^ $r13: .cfa -40 + ^ $r14: .cfa -32 + ^ $r15: .cfa -24 + ^
STACK CFI INIT 32160 50 .cfa: $rbp 16 + $rbp: .cfa -16 + ^ .ra: .cfa -8 + ^ $rbx: .cfa -24 + ^
STACK CFI INIT 321b0 50 .cfa: $rbp 16 + $rbp: .cfa -16 + ^ .ra: .cfa -8 + ^
STACK CFI INIT 32200 110 .cfa: $rbp 16 + $rbp: .cfa -16 + ^ .ra: .cfa -8 + ^ $rbx: .cfa -56 + ^ $r12: .cfa -48 + ^ $r13: .cfa -40 + ^ $r14: .cfa -32 + ^ $r15: .cfa -24 + ^
STACK CFI INIT 32310 50 .cfa: $rbp 16 + $rbp: .cfa -16 + ^ .ra: .cfa -8 + ^
STACK CFI INIT 32360 1e0 .cfa: $rbp 16 + $rbp: .cfa -16 + ^ .ra: .cfa -8 + ^ $rbx: .cfa -56 + ^ $r12: .cfa -48 + ^ $r13: .cfa -40 + ^ $r14: .cfa -32 + ^ $r15: .cfa -24 + ^
STACK CFI INIT 32540 190 .cfa: $rbp 16 + $rbp: .cfa -16 + ^ .ra: .cfa -8 + ^
STACK CFI INIT 326d0 160 .cfa: $rbp 16 + $rbp: .cfa -16 + ^ .ra: .cfa -8 + ^ $rbx: .cfa -24 + ^
STACK CFI INIT 32830 2a0 .cfa: $rbp 16 + $rbp: .cfa -16 + ^ .ra: .cfa -8 + ^ $rbx: .cfa -56 + ^ $r12: .cfa -48 + ^ $r13: .cfa -40 + ^ $r14: .cfa -32 + ^ $r15: .cfa -24 + ^
STACK CFI INIT 32ad0 160 .cfa: $rbp 16 + $rbp: .cfa -16 + ^ .ra: .cfa -8 + ^ $rbx: .cfa -56 + ^ $r12: .cfa -48 + ^ $r13: .cfa -40 + ^ $r14: .cfa -32 + ^ $r15: .cfa -24 + ^
STACK CFI INIT 32c30 100 .cfa: $rbp 16 + $rbp: .cfa -16 + ^ .ra: .cfa -8 + ^ $rbx: .cfa -56 + ^ $r12: .cfa -48 + ^ $r13: .cfa -40 + ^ $r14: .cfa -32 + ^ $r15: .cfa -24 + ^
STACK CFI INIT 32d30 320 .cfa: $rbp 16 + $rbp: .cfa -16 + ^ .ra: .cfa -8 + ^ $rbx: .cfa -56 + ^ $r12: .cfa -48 + ^ $r13: .cfa -40 + ^ $r14: .cfa -32 + ^ $r15: .cfa -24 + ^
STACK CFI INIT 33050 c0 .cfa: $rbp 16 + $rbp: .cfa -16 + ^ .ra: .cfa -8 + ^ $rbx: .cfa -32 + ^ $r14: .cfa -24 + ^
STACK CFI INIT 33110 100 .cfa: $rbp 16 + $rbp: .cfa -16 + ^ .ra: .cfa -8 + ^ $rbx: .cfa -56 + ^ $r12: .cfa -48 + ^ $r13: .cfa -40 + ^ $r14: .cfa -32 + ^ $r15: .cfa -24 + ^
STACK CFI INIT 33210 10 .cfa: $rbp 16 + $rbp: .cfa -16 + ^ .ra: .cfa -8 + ^
STACK CFI INIT 33220 110 .cfa: $rbp 16 + $rbp: .cfa -16 + ^ .ra: .cfa -8 + ^ $rbx: .cfa -40 + ^ $r14: .cfa -32 + ^ $r15: .cfa -24 + ^
STACK CFI INIT 33330 60 .cfa: $rbp 16 + $rbp: .cfa -16 + ^ .ra: .cfa -8 + ^
STACK CFI INIT 33390 60 .cfa: $rbp 16 + $rbp: .cfa -16 + ^ .ra: .cfa -8 + ^ $rbx: .cfa -48 + ^ $r12: .cfa -40 + ^ $r14: .cfa -32 + ^ $r15: .cfa -24 + ^
STACK CFI INIT 333f0 1f0 .cfa: $rbp 16 + $rbp: .cfa -16 + ^ .ra: .cfa -8 + ^ $rbx: .cfa -24 + ^
STACK CFI INIT 335e0 e0 .cfa: $rbp 16 + $rbp: .cfa -16 + ^ .ra: .cfa -8 + ^
STACK CFI INIT 336c0 60 .cfa: $rbp 16 + $rbp: .cfa -16 + ^ .ra: .cfa -8 + ^ $rbx: .cfa -32 + ^ $r14: .cfa -24 + ^
STACK CFI INIT 33720 90 .cfa: $rbp 16 + $rbp: .cfa -16 + ^ .ra: .cfa -8 + ^ $rbx: .cfa -48 + ^ $r12: .cfa -40 + ^ $r14: .cfa -32 + ^ $r15: .cfa -24 + ^
STACK CFI INIT 337b0 30 .cfa: $rbp 16 + $rbp: .cfa -16 + ^ .ra: .cfa -8 + ^
STACK CFI INIT 337e0 a0 .cfa: $rbp 16 + $rbp: .cfa -16 + ^ .ra: .cfa -8 + ^ $rbx: .cfa -56 + ^ $r12: .cfa -48 + ^ $r13: .cfa -40 + ^ $r14: .cfa -32 + ^ $r15: .cfa -24 + ^
STACK CFI INIT 33880 500 .cfa: $rbp 16 + $rbp: .cfa -16 + ^ .ra: .cfa -8 + ^
STACK CFI INIT 33d80 1f0 .cfa: $rbp 16 + $rbp: .cfa -16 + ^ .ra: .cfa -8 + ^ $rbx: .cfa -56 + ^ $r12: .cfa -48 + ^ $r13: .cfa -40 + ^ $r14: .cfa -32 + ^ $r15: .cfa -24 + ^
STACK CFI INIT 33f70 2e0 .cfa: $rbp 16 + $rbp: .cfa -16 + ^ .ra: .cfa -8 + ^ $rbx: .cfa -56 + ^ $r12: .cfa -48 + ^ $r13: .cfa -40 + ^ $r14: .cfa -32 + ^ $r15: .cfa -24 + ^
STACK CFI INIT 34250 20 .cfa: $rbp 16 + $rbp: .cfa -16 + ^ .ra: .cfa -8 + ^
STACK CFI INIT 34270 480 .cfa: $rbp 16 + $rbp: .cfa -16 + ^ .ra: .cfa -8 + ^ $rbx: .cfa -56 + ^ $r12: .cfa -48 + ^ $r13: .cfa -40 + ^ $r14: .cfa -32 + ^ $r15: .cfa -24 + ^
STACK CFI INIT 346f0 290 .cfa: $rbp 16 + $rbp: .cfa -16 + ^ .ra: .cfa -8 + ^ $rbx: .cfa -56 + ^ $r12: .cfa -48 + ^ $r13: .cfa -40 + ^ $r14: .cfa -32 + ^ $r15: .cfa -24 + ^
STACK CFI INIT 34980 a30 .cfa: $rbp 16 + $rbp: .cfa -16 + ^ .ra: .cfa -8 + ^ $rbx: .cfa -56 + ^ $r12: .cfa -48 + ^ $r13: .cfa -40 + ^ $r14: .cfa -32 + ^ $r15: .cfa -24 + ^
STACK CFI INIT 353b0 10 .cfa: $rbp 16 + $rbp: .cfa -16 + ^ .ra: .cfa -8 + ^
STACK CFI INIT 353c0 8e0 .cfa: $rbp 16 + $rbp: .cfa -16 + ^ .ra: .cfa -8 + ^ $rbx: .cfa -56 + ^ $r12: .cfa -48 + ^ $r13: .cfa -40 + ^ $r14: .cfa -32 + ^ $r15: .cfa -24 + ^
STACK CFI INIT 35ca0 2e0 .cfa: $rbp 16 + $rbp: .cfa -16 + ^ .ra: .cfa -8 + ^
STACK CFI INIT 35f80 110 .cfa: $rbp 16 + $rbp: .cfa -16 + ^ .ra: .cfa -8 + ^ $rbx: .cfa -56 + ^ $r12: .cfa -48 + ^ $r13: .cfa -40 + ^ $r14: .cfa -32 + ^ $r15: .cfa -24 + ^
STACK CFI INIT 36090 90 .cfa: $rbp 16 + $rbp: .cfa -16 + ^ .ra: .cfa -8 + ^ $rbx: .cfa -48 + ^ $r12: .cfa -40 + ^ $r14: .cfa -32 + ^ $r15: .cfa -24 + ^
STACK CFI INIT 36120 c0 .cfa: $rbp 16 + $rbp: .cfa -16 + ^ .ra: .cfa -8 + ^
STACK CFI INIT 361e0 c0 .cfa: $rbp 16 + $rbp: .cfa -16 + ^ .ra: .cfa -8 + ^ $rbx: .cfa -48 + ^ $r12: .cfa -40 + ^ $r14: .cfa -32 + ^ $r15: .cfa -24 + ^
STACK CFI INIT 362a0 70 .cfa: $rbp 16 + $rbp: .cfa -16 + ^ .ra: .cfa -8 + ^ $rbx: .cfa -24 + ^
STACK CFI INIT 36310 60 .cfa: $rbp 16 + $rbp: .cfa -16 + ^ .ra: .cfa -8 + ^
STACK CFI INIT 36370 a0 .cfa: $rbp 16 + $rbp: .cfa -16 + ^ .ra: .cfa -8 + ^ $rbx: .cfa -56 + ^ $r12: .cfa -48 + ^ $r13: .cfa -40 + ^ $r14: .cfa -32 + ^ $r15: .cfa -24 + ^
STACK CFI INIT 36410 60 .cfa: $rbp 16 + $rbp: .cfa -16 + ^ .ra: .cfa -8 + ^
STACK CFI INIT 36470 90 .cfa: $rbp 16 + $rbp: .cfa -16 + ^ .ra: .cfa -8 + ^ $rbx: .cfa -40 + ^ $r14: .cfa -32 + ^ $r15: .cfa -24 + ^
STACK CFI INIT 36500 20 .cfa: $rbp 16 + $rbp: .cfa -16 + ^ .ra: .cfa -8 + ^
STACK CFI INIT 36520 1e0 .cfa: $rbp 16 + $rbp: .cfa -16 + ^ .ra: .cfa -8 + ^ $rbx: .cfa -56 + ^ $r12: .cfa -48 + ^ $r13: .cfa -40 + ^ $r14: .cfa -32 + ^ $r15: .cfa -24 + ^
STACK CFI INIT 36700 10 .cfa: $rbp 16 + $rbp: .cfa -16 + ^ .ra: .cfa -8 + ^
STACK CFI INIT 36710 140 .cfa: $rbp 16 + $rbp: .cfa -16 + ^ .ra: .cfa -8 + ^ $rbx: .cfa -48 + ^ $r12: .cfa -40 + ^ $r14: .cfa -32 + ^ $r15: .cfa -24 + ^
STACK CFI INIT 36850 c0 .cfa: $rbp 16 + $rbp: .cfa -16 + ^ .ra: .cfa -8 + ^
STACK CFI INIT 36910 130 .cfa: $rbp 16 + $rbp: .cfa -16 + ^ .ra: .cfa -8 + ^ $rbx: .cfa -48 + ^ $r12: .cfa -40 + ^ $r14: .cfa -32 + ^ $r15: .cfa -24 + ^
STACK CFI INIT 36a40 310 .cfa: $rbp 16 + $rbp: .cfa -16 + ^ .ra: .cfa -8 + ^ $rbx: .cfa -56 + ^ $r12: .cfa -48 + ^ $r13: .cfa -40 + ^ $r14: .cfa -32 + ^ $r15: .cfa -24 + ^
STACK CFI INIT 36d50 310 .cfa: $rbp 16 + $rbp: .cfa -16 + ^ .ra: .cfa -8 + ^ $rbx: .cfa -56 + ^ $r12: .cfa -48 + ^ $r13: .cfa -40 + ^ $r14: .cfa -32 + ^ $r15: .cfa -24 + ^
STACK CFI INIT 37060 130 .cfa: $rbp 16 + $rbp: .cfa -16 + ^ .ra: .cfa -8 + ^
STACK CFI INIT 37190 110 .cfa: $rbp 16 + $rbp: .cfa -16 + ^ .ra: .cfa -8 + ^ $rbx: .cfa -40 + ^ $r14: .cfa -32 + ^ $r15: .cfa -24 + ^
STACK CFI INIT 372a0 60 .cfa: $rbp 16 + $rbp: .cfa -16 + ^ .ra: .cfa -8 + ^ $rbx: .cfa -48 + ^ $r12: .cfa -40 + ^ $r14: .cfa -32 + ^ $r15: .cfa -24 + ^
STACK CFI INIT 37300 30 .cfa: $rbp 16 + $rbp: .cfa -16 + ^ .ra: .cfa -8 + ^
STACK CFI INIT 37330 1a0 .cfa: $rbp 16 + $rbp: .cfa -16 + ^ .ra: .cfa -8 + ^ $rbx: .cfa -32 + ^ $r14: .cfa -24 + ^
STACK CFI INIT 374d0 160 .cfa: $rbp 16 + $rbp: .cfa -16 + ^ .ra: .cfa -8 + ^ $rbx: .cfa -48 + ^ $r12: .cfa -40 + ^ $r14: .cfa -32 + ^ $r15: .cfa -24 + ^
STACK CFI INIT 37630 170 .cfa: $rbp 16 + $rbp: .cfa -16 + ^ .ra: .cfa -8 + ^ $rbx: .cfa -56 + ^ $r12: .cfa -48 + ^ $r13: .cfa -40 + ^ $r14: .cfa -32 + ^ $r15: .cfa -24 + ^
STACK CFI INIT 377a0 f0 .cfa: $rbp 16 + $rbp: .cfa -16 + ^ .ra: .cfa -8 + ^ $rbx: .cfa -24 + ^
STACK CFI INIT 37890 110 .cfa: $rbp 16 + $rbp: .cfa -16 + ^ .ra: .cfa -8 + ^ $rbx: .cfa -32 + ^ $r14: .cfa -24 + ^
STACK CFI INIT 379a0 110 .cfa: $rbp 16 + $rbp: .cfa -16 + ^ .ra: .cfa -8 + ^ $rbx: .cfa -32 + ^ $r14: .cfa -24 + ^
STACK CFI INIT 37ab0 160 .cfa: $rbp 16 + $rbp: .cfa -16 + ^ .ra: .cfa -8 + ^ $rbx: .cfa -32 + ^ $r14: .cfa -24 + ^
STACK CFI INIT 37c10 160 .cfa: $rbp 16 + $rbp: .cfa -16 + ^ .ra: .cfa -8 + ^ $rbx: .cfa -32 + ^ $r14: .cfa -24 + ^
STACK CFI INIT 37d70 d0 .cfa: $rbp 16 + $rbp: .cfa -16 + ^ .ra: .cfa -8 + ^ $rbx: .cfa -24 + ^
STACK CFI INIT 37e40 c0 .cfa: $rbp 16 + $rbp: .cfa -16 + ^ .ra: .cfa -8 + ^
STACK CFI INIT 37f00 60 .cfa: $rbp 16 + $rbp: .cfa -16 + ^ .ra: .cfa -8 + ^ $rbx: .cfa -24 + ^
STACK CFI INIT 37f60 80 .cfa: $rbp 16 + $rbp: .cfa -16 + ^ .ra: .cfa -8 + ^
STACK CFI INIT 37fe0 180 .cfa: $rbp 16 + $rbp: .cfa -16 + ^ .ra: .cfa -8 + ^ $rbx: .cfa -32 + ^ $r14: .cfa -24 + ^
STACK CFI INIT 38160 1c0 .cfa: $rbp 16 + $rbp: .cfa -16 + ^ .ra: .cfa -8 + ^ $rbx: .cfa -48 + ^ $r12: .cfa -40 + ^ $r14: .cfa -32 + ^ $r15: .cfa -24 + ^
STACK CFI INIT 38320 e00 .cfa: $rbp 16 + $rbp: .cfa -16 + ^ .ra: .cfa -8 + ^ $rbx: .cfa -56 + ^ $r12: .cfa -48 + ^ $r13: .cfa -40 + ^ $r14: .cfa -32 + ^ $r15: .cfa -24 + ^
STACK CFI INIT 39120 300 .cfa: $rbp 16 + $rbp: .cfa -16 + ^ .ra: .cfa -8 + ^ $rbx: .cfa -56 + ^ $r12: .cfa -48 + ^ $r13: .cfa -40 + ^ $r14: .cfa -32 + ^ $r15: .cfa -24 + ^
STACK CFI INIT 39420 30 .cfa: $rbp 16 + $rbp: .cfa -16 + ^ .ra: .cfa -8 + ^
STACK CFI INIT 39450 400 .cfa: $rbp 16 + $rbp: .cfa -16 + ^ .ra: .cfa -8 + ^ $rbx: .cfa -48 + ^ $r12: .cfa -40 + ^ $r14: .cfa -32 + ^ $r15: .cfa -24 + ^
STACK CFI INIT 39850 110 .cfa: $rbp 16 + $rbp: .cfa -16 + ^ .ra: .cfa -8 + ^ $rbx: .cfa -56 + ^ $r12: .cfa -48 + ^ $r13: .cfa -40 + ^ $r14: .cfa -32 + ^ $r15: .cfa -24 + ^
STACK CFI INIT 39960 550 .cfa: $rbp 16 + $rbp: .cfa -16 + ^ .ra: .cfa -8 + ^ $rbx: .cfa -56 + ^ $r12: .cfa -48 + ^ $r13: .cfa -40 + ^ $r14: .cfa -32 + ^ $r15: .cfa -24 + ^
STACK CFI INIT 39eb0 1a00 .cfa: $rbp 16 + $rbp: .cfa -16 + ^ .ra: .cfa -8 + ^ $rbx: .cfa -56 + ^ $r12: .cfa -48 + ^ $r13: .cfa -40 + ^ $r14: .cfa -32 + ^ $r15: .cfa -24 + ^
STACK CFI INIT 3b8b0 c10 .cfa: $rbp 16 + $rbp: .cfa -16 + ^ .ra: .cfa -8 + ^ $rbx: .cfa -56 + ^ $r12: .cfa -48 + ^ $r13: .cfa -40 + ^ $r14: .cfa -32 + ^ $r15: .cfa -24 + ^
STACK CFI INIT 3c4c0 60 .cfa: $rbp 16 + $rbp: .cfa -16 + ^ .ra: .cfa -8 + ^ $rbx: .cfa -48 + ^ $r12: .cfa -40 + ^ $r14: .cfa -32 + ^ $r15: .cfa -24 + ^
STACK CFI INIT 3c520 80 .cfa: $rbp 16 + $rbp: .cfa -16 + ^ .ra: .cfa -8 + ^
STACK CFI INIT 3c5a0 60 .cfa: $rbp 16 + $rbp: .cfa -16 + ^ .ra: .cfa -8 + ^ $rbx: .cfa -32 + ^ $r14: .cfa -24 + ^
STACK CFI INIT 3c600 70 .cfa: $rbp 16 + $rbp: .cfa -16 + ^ .ra: .cfa -8 + ^ $rbx: .cfa -32 + ^ $r14: .cfa -24 + ^
STACK CFI INIT 3c670 30 .cfa: $rbp 16 + $rbp: .cfa -16 + ^ .ra: .cfa -8 + ^
STACK CFI INIT 3c6a0 140 .cfa: $rbp 16 + $rbp: .cfa -16 + ^ .ra: .cfa -8 + ^ $rbx: .cfa -48 + ^ $r12: .cfa -40 + ^ $r14: .cfa -32 + ^ $r15: .cfa -24 + ^
STACK CFI INIT 3c7e0 100 .cfa: $rbp 16 + $rbp: .cfa -16 + ^ .ra: .cfa -8 + ^ $rbx: .cfa -24 + ^
STACK CFI INIT 3c8e0 1b0 .cfa: $rbp 16 + $rbp: .cfa -16 + ^ .ra: .cfa -8 + ^ $rbx: .cfa -48 + ^ $r12: .cfa -40 + ^ $r14: .cfa -32 + ^ $r15: .cfa -24 + ^
STACK CFI INIT 3ca90 30 .cfa: $rbp 16 + $rbp: .cfa -16 + ^ .ra: .cfa -8 + ^
STACK CFI INIT 3cac0 c0 .cfa: $rbp 16 + $rbp: .cfa -16 + ^ .ra: .cfa -8 + ^ $rbx: .cfa -56 + ^ $r12: .cfa -48 + ^ $r13: .cfa -40 + ^ $r14: .cfa -32 + ^ $r15: .cfa -24 + ^
STACK CFI INIT 3cb80 c0 .cfa: $rbp 16 + $rbp: .cfa -16 + ^ .ra: .cfa -8 + ^ $rbx: .cfa -56 + ^ $r12: .cfa -48 + ^ $r13: .cfa -40 + ^ $r14: .cfa -32 + ^ $r15: .cfa -24 + ^
STACK CFI INIT 3cc40 e0 .cfa: $rbp 16 + $rbp: .cfa -16 + ^ .ra: .cfa -8 + ^ $rbx: .cfa -56 + ^ $r12: .cfa -48 + ^ $r13: .cfa -40 + ^ $r14: .cfa -32 + ^ $r15: .cfa -24 + ^
STACK CFI INIT 3cd20 1e0 .cfa: $rbp 16 + $rbp: .cfa -16 + ^ .ra: .cfa -8 + ^
STACK CFI INIT 3cf00 a0 .cfa: $rbp 16 + $rbp: .cfa -16 + ^ .ra: .cfa -8 + ^ $rbx: .cfa -48 + ^ $r12: .cfa -40 + ^ $r14: .cfa -32 + ^ $r15: .cfa -24 + ^
STACK CFI INIT 3cfa0 30 .cfa: $rbp 16 + $rbp: .cfa -16 + ^ .ra: .cfa -8 + ^
STACK CFI INIT 3cfd0 a0 .cfa: $rbp 16 + $rbp: .cfa -16 + ^ .ra: .cfa -8 + ^ $rbx: .cfa -56 + ^ $r12: .cfa -48 + ^ $r13: .cfa -40 + ^ $r14: .cfa -32 + ^ $r15: .cfa -24 + ^
STACK CFI INIT 3d070 a0 .cfa: $rbp 16 + $rbp: .cfa -16 + ^ .ra: .cfa -8 + ^
STACK CFI INIT 3d110 1f0 .cfa: $rbp 16 + $rbp: .cfa -16 + ^ .ra: .cfa -8 + ^ $rbx: .cfa -56 + ^ $r12: .cfa -48 + ^ $r13: .cfa -40 + ^ $r14: .cfa -32 + ^ $r15: .cfa -24 + ^
STACK CFI INIT 3d300 140 .cfa: $rbp 16 + $rbp: .cfa -16 + ^ .ra: .cfa -8 + ^ $rbx: .cfa -56 + ^ $r12: .cfa -48 + ^ $r13: .cfa -40 + ^ $r14: .cfa -32 + ^ $r15: .cfa -24 + ^
STACK CFI INIT 3d440 20 .cfa: $rbp 16 + $rbp: .cfa -16 + ^ .ra: .cfa -8 + ^
STACK CFI INIT 3d460 90 .cfa: $rbp 16 + $rbp: .cfa -16 + ^ .ra: .cfa -8 + ^ $rbx: .cfa -48 + ^ $r12: .cfa -40 + ^ $r14: .cfa -32 + ^ $r15: .cfa -24 + ^
STACK CFI INIT 3d4f0 c0 .cfa: $rbp 16 + $rbp: .cfa -16 + ^ .ra: .cfa -8 + ^ $rbx: .cfa -48 + ^ $r12: .cfa -40 + ^ $r14: .cfa -32 + ^ $r15: .cfa -24 + ^
STACK CFI INIT 3d5b0 b0 .cfa: $rbp 16 + $rbp: .cfa -16 + ^ .ra: .cfa -8 + ^ $rbx: .cfa -24 + ^
STACK CFI INIT 3d660 a0 .cfa: $rbp 16 + $rbp: .cfa -16 + ^ .ra: .cfa -8 + ^ $rbx: .cfa -56 + ^ $r12: .cfa -48 + ^ $r13: .cfa -40 + ^ $r14: .cfa -32 + ^ $r15: .cfa -24 + ^
STACK CFI INIT 3d700 60 .cfa: $rbp 16 + $rbp: .cfa -16 + ^ .ra: .cfa -8 + ^ $rbx: .cfa -32 + ^ $r14: .cfa -24 + ^
STACK CFI INIT 3d760 300 .cfa: $rbp 16 + $rbp: .cfa -16 + ^ .ra: .cfa -8 + ^ $rbx: .cfa -56 + ^ $r12: .cfa -48 + ^ $r13: .cfa -40 + ^ $r14: .cfa -32 + ^ $r15: .cfa -24 + ^
STACK CFI INIT 3da60 160 .cfa: $rbp 16 + $rbp: .cfa -16 + ^ .ra: .cfa -8 + ^ $rbx: .cfa -56 + ^ $r12: .cfa -48 + ^ $r13: .cfa -40 + ^ $r14: .cfa -32 + ^ $r15: .cfa -24 + ^
STACK CFI INIT 3dbc0 20 .cfa: $rbp 16 + $rbp: .cfa -16 + ^ .ra: .cfa -8 + ^
STACK CFI INIT 3dbe0 b0 .cfa: $rbp 16 + $rbp: .cfa -16 + ^ .ra: .cfa -8 + ^ $rbx: .cfa -32 + ^ $r14: .cfa -24 + ^
STACK CFI INIT 3dc90 110 .cfa: $rbp 16 + $rbp: .cfa -16 + ^ .ra: .cfa -8 + ^ $rbx: .cfa -40 + ^ $r14: .cfa -32 + ^ $r15: .cfa -24 + ^
STACK CFI INIT 3dda0 140 .cfa: $rbp 16 + $rbp: .cfa -16 + ^ .ra: .cfa -8 + ^ $rbx: .cfa -48 + ^ $r12: .cfa -40 + ^ $r14: .cfa -32 + ^ $r15: .cfa -24 + ^
STACK CFI INIT 3dee0 30 .cfa: $rbp 16 + $rbp: .cfa -16 + ^ .ra: .cfa -8 + ^
STACK CFI INIT 3df10 55e0 .cfa: $rbp 16 + $rbp: .cfa -16 + ^ .ra: .cfa -8 + ^ $rbx: .cfa -56 + ^ $r12: .cfa -48 + ^ $r13: .cfa -40 + ^ $r14: .cfa -32 + ^ $r15: .cfa -24 + ^
STACK CFI INIT 434f0 260 .cfa: $rbp 16 + $rbp: .cfa -16 + ^ .ra: .cfa -8 + ^ $rbx: .cfa -56 + ^ $r12: .cfa -48 + ^ $r13: .cfa -40 + ^ $r14: .cfa -32 + ^ $r15: .cfa -24 + ^
STACK CFI INIT 43750 ec0 .cfa: $rbp 16 + $rbp: .cfa -16 + ^ .ra: .cfa -8 + ^ $rbx: .cfa -56 + ^ $r12: .cfa -48 + ^ $r13: .cfa -40 + ^ $r14: .cfa -32 + ^ $r15: .cfa -24 + ^
STACK CFI INIT 44610 a70 .cfa: $rbp 16 + $rbp: .cfa -16 + ^ .ra: .cfa -8 + ^ $rbx: .cfa -56 + ^ $r12: .cfa -48 + ^ $r13: .cfa -40 + ^ $r14: .cfa -32 + ^ $r15: .cfa -24 + ^
STACK CFI INIT 45080 3c0 .cfa: $rbp 16 + $rbp: .cfa -16 + ^ .ra: .cfa -8 + ^ $rbx: .cfa -56 + ^ $r12: .cfa -48 + ^ $r13: .cfa -40 + ^ $r14: .cfa -32 + ^ $r15: .cfa -24 + ^
STACK CFI INIT 45440 640 .cfa: $rbp 16 + $rbp: .cfa -16 + ^ .ra: .cfa -8 + ^ $rbx: .cfa -56 + ^ $r12: .cfa -48 + ^ $r13: .cfa -40 + ^ $r14: .cfa -32 + ^ $r15: .cfa -24 + ^
STACK CFI INIT 45a80 200 .cfa: $rbp 16 + $rbp: .cfa -16 + ^ .ra: .cfa -8 + ^ $rbx: .cfa -56 + ^ $r12: .cfa -48 + ^ $r13: .cfa -40 + ^ $r14: .cfa -32 + ^ $r15: .cfa -24 + ^
STACK CFI INIT 45c80 1060 .cfa: $rbp 16 + $rbp: .cfa -16 + ^ .ra: .cfa -8 + ^ $rbx: .cfa -56 + ^ $r12: .cfa -48 + ^ $r13: .cfa -40 + ^ $r14: .cfa -32 + ^ $r15: .cfa -24 + ^
STACK CFI INIT 46ce0 350 .cfa: $rbp 16 + $rbp: .cfa -16 + ^ .ra: .cfa -8 + ^ $rbx: .cfa -56 + ^ $r12: .cfa -48 + ^ $r13: .cfa -40 + ^ $r14: .cfa -32 + ^ $r15: .cfa -24 + ^
STACK CFI INIT 47030 1080 .cfa: $rbp 16 + $rbp: .cfa -16 + ^ .ra: .cfa -8 + ^ $rbx: .cfa -56 + ^ $r12: .cfa -48 + ^ $r13: .cfa -40 + ^ $r14: .cfa -32 + ^ $r15: .cfa -24 + ^
STACK CFI INIT 480b0 310 .cfa: $rbp 16 + $rbp: .cfa -16 + ^ .ra: .cfa -8 + ^ $rbx: .cfa -56 + ^ $r12: .cfa -48 + ^ $r13: .cfa -40 + ^ $r14: .cfa -32 + ^ $r15: .cfa -24 + ^
STACK CFI INIT 483c0 a0 .cfa: $rbp 16 + $rbp: .cfa -16 + ^ .ra: .cfa -8 + ^
STACK CFI INIT 48460 60 .cfa: $rbp 16 + $rbp: .cfa -16 + ^ .ra: .cfa -8 + ^ $rbx: .cfa -32 + ^ $r14: .cfa -24 + ^
STACK CFI INIT 484c0 70 .cfa: $rbp 16 + $rbp: .cfa -16 + ^ .ra: .cfa -8 + ^ $rbx: .cfa -32 + ^ $r14: .cfa -24 + ^
STACK CFI INIT 48530 30 .cfa: $rbp 16 + $rbp: .cfa -16 + ^ .ra: .cfa -8 + ^
STACK CFI INIT 48560 140 .cfa: $rbp 16 + $rbp: .cfa -16 + ^ .ra: .cfa -8 + ^ $rbx: .cfa -48 + ^ $r12: .cfa -40 + ^ $r14: .cfa -32 + ^ $r15: .cfa -24 + ^
STACK CFI INIT 486a0 60 .cfa: $rbp 16 + $rbp: .cfa -16 + ^ .ra: .cfa -8 + ^ $rbx: .cfa -32 + ^ $r14: .cfa -24 + ^
STACK CFI INIT 48700 120 .cfa: $rbp 16 + $rbp: .cfa -16 + ^ .ra: .cfa -8 + ^ $rbx: .cfa -48 + ^ $r12: .cfa -40 + ^ $r14: .cfa -32 + ^ $r15: .cfa -24 + ^
STACK CFI INIT 48820 a0 .cfa: $rbp 16 + $rbp: .cfa -16 + ^ .ra: .cfa -8 + ^ $rbx: .cfa -56 + ^ $r12: .cfa -48 + ^ $r13: .cfa -40 + ^ $r14: .cfa -32 + ^ $r15: .cfa -24 + ^
STACK CFI INIT 488c0 c0 .cfa: $rbp 16 + $rbp: .cfa -16 + ^ .ra: .cfa -8 + ^ $rbx: .cfa -56 + ^ $r12: .cfa -48 + ^ $r13: .cfa -40 + ^ $r14: .cfa -32 + ^ $r15: .cfa -24 + ^
STACK CFI INIT 48980 e0 .cfa: $rbp 16 + $rbp: .cfa -16 + ^ .ra: .cfa -8 + ^ $rbx: .cfa -56 + ^ $r12: .cfa -48 + ^ $r13: .cfa -40 + ^ $r14: .cfa -32 + ^ $r15: .cfa -24 + ^
STACK CFI INIT 48a60 1e0 .cfa: $rbp 16 + $rbp: .cfa -16 + ^ .ra: .cfa -8 + ^
STACK CFI INIT 48c40 c0 .cfa: $rbp 16 + $rbp: .cfa -16 + ^ .ra: .cfa -8 + ^ $rbx: .cfa -48 + ^ $r12: .cfa -40 + ^ $r14: .cfa -32 + ^ $r15: .cfa -24 + ^
STACK CFI INIT 48d00 a0 .cfa: $rbp 16 + $rbp: .cfa -16 + ^ .ra: .cfa -8 + ^ $rbx: .cfa -56 + ^ $r12: .cfa -48 + ^ $r13: .cfa -40 + ^ $r14: .cfa -32 + ^ $r15: .cfa -24 + ^
STACK CFI INIT 48da0 70 .cfa: $rbp 16 + $rbp: .cfa -16 + ^ .ra: .cfa -8 + ^
STACK CFI INIT 48e10 1f0 .cfa: $rbp 16 + $rbp: .cfa -16 + ^ .ra: .cfa -8 + ^ $rbx: .cfa -56 + ^ $r12: .cfa -48 + ^ $r13: .cfa -40 + ^ $r14: .cfa -32 + ^ $r15: .cfa -24 + ^
STACK CFI INIT 49000 140 .cfa: $rbp 16 + $rbp: .cfa -16 + ^ .ra: .cfa -8 + ^ $rbx: .cfa -56 + ^ $r12: .cfa -48 + ^ $r13: .cfa -40 + ^ $r14: .cfa -32 + ^ $r15: .cfa -24 + ^
STACK CFI INIT 49140 90 .cfa: $rbp 16 + $rbp: .cfa -16 + ^ .ra: .cfa -8 + ^ $rbx: .cfa -48 + ^ $r12: .cfa -40 + ^ $r14: .cfa -32 + ^ $r15: .cfa -24 + ^
STACK CFI INIT 491d0 c0 .cfa: $rbp 16 + $rbp: .cfa -16 + ^ .ra: .cfa -8 + ^ $rbx: .cfa -48 + ^ $r12: .cfa -40 + ^ $r14: .cfa -32 + ^ $r15: .cfa -24 + ^
STACK CFI INIT 49290 430 .cfa: $rbp 16 + $rbp: .cfa -16 + ^ .ra: .cfa -8 + ^ $rbx: .cfa -56 + ^ $r12: .cfa -48 + ^ $r13: .cfa -40 + ^ $r14: .cfa -32 + ^ $r15: .cfa -24 + ^
STACK CFI INIT 496c0 300 .cfa: $rbp 16 + $rbp: .cfa -16 + ^ .ra: .cfa -8 + ^ $rbx: .cfa -56 + ^ $r12: .cfa -48 + ^ $r13: .cfa -40 + ^ $r14: .cfa -32 + ^ $r15: .cfa -24 + ^
STACK CFI INIT 499c0 80 .cfa: $rbp 16 + $rbp: .cfa -16 + ^ .ra: .cfa -8 + ^ $rbx: .cfa -24 + ^
STACK CFI INIT 49a40 160 .cfa: $rbp 16 + $rbp: .cfa -16 + ^ .ra: .cfa -8 + ^ $rbx: .cfa -56 + ^ $r12: .cfa -48 + ^ $r13: .cfa -40 + ^ $r14: .cfa -32 + ^ $r15: .cfa -24 + ^
STACK CFI INIT 49ba0 160 .cfa: $rbp 16 + $rbp: .cfa -16 + ^ .ra: .cfa -8 + ^ $rbx: .cfa -56 + ^ $r12: .cfa -48 + ^ $r13: .cfa -40 + ^ $r14: .cfa -32 + ^ $r15: .cfa -24 + ^
STACK CFI INIT 49d00 110 .cfa: $rbp 16 + $rbp: .cfa -16 + ^ .ra: .cfa -8 + ^ $rbx: .cfa -40 + ^ $r14: .cfa -32 + ^ $r15: .cfa -24 + ^
STACK CFI INIT 49e10 60 .cfa: $rbp 16 + $rbp: .cfa -16 + ^ .ra: .cfa -8 + ^ $rbx: .cfa -48 + ^ $r12: .cfa -40 + ^ $r14: .cfa -32 + ^ $r15: .cfa -24 + ^
STACK CFI INIT 49e70 20 .cfa: $rbp 16 + $rbp: .cfa -16 + ^ .ra: .cfa -8 + ^
STACK CFI INIT 49e90 210 .cfa: $rbp 16 + $rbp: .cfa -16 + ^ .ra: .cfa -8 + ^ $rbx: .cfa -56 + ^ $r12: .cfa -48 + ^ $r13: .cfa -40 + ^ $r14: .cfa -32 + ^ $r15: .cfa -24 + ^
STACK CFI INIT 4a0a0 760 .cfa: $rbp 16 + $rbp: .cfa -16 + ^ .ra: .cfa -8 + ^ $rbx: .cfa -40 + ^ $r14: .cfa -32 + ^ $r15: .cfa -24 + ^
STACK CFI INIT 4a800 2b0 .cfa: $rbp 16 + $rbp: .cfa -16 + ^ .ra: .cfa -8 + ^ $rbx: .cfa -56 + ^ $r12: .cfa -48 + ^ $r13: .cfa -40 + ^ $r14: .cfa -32 + ^ $r15: .cfa -24 + ^
STACK CFI INIT 4aab0 80 .cfa: $rbp 16 + $rbp: .cfa -16 + ^ .ra: .cfa -8 + ^ $rbx: .cfa -40 + ^ $r14: .cfa -32 + ^ $r15: .cfa -24 + ^
STACK CFI INIT 4ab30 a0 .cfa: $rbp 16 + $rbp: .cfa -16 + ^ .ra: .cfa -8 + ^ $rbx: .cfa -24 + ^
STACK CFI INIT 4abd0 150 .cfa: $rbp 16 + $rbp: .cfa -16 + ^ .ra: .cfa -8 + ^ $rbx: .cfa -56 + ^ $r12: .cfa -48 + ^ $r13: .cfa -40 + ^ $r14: .cfa -32 + ^ $r15: .cfa -24 + ^
STACK CFI INIT 4ad20 550 .cfa: $rbp 16 + $rbp: .cfa -16 + ^ .ra: .cfa -8 + ^ $rbx: .cfa -56 + ^ $r12: .cfa -48 + ^ $r13: .cfa -40 + ^ $r14: .cfa -32 + ^ $r15: .cfa -24 + ^
STACK CFI INIT 4b270 2490 .cfa: $rbp 16 + $rbp: .cfa -16 + ^ .ra: .cfa -8 + ^ $rbx: .cfa -56 + ^ $r12: .cfa -48 + ^ $r13: .cfa -40 + ^ $r14: .cfa -32 + ^ $r15: .cfa -24 + ^
STACK CFI INIT 4d700 a10 .cfa: $rbp 16 + $rbp: .cfa -16 + ^ .ra: .cfa -8 + ^ $rbx: .cfa -56 + ^ $r12: .cfa -48 + ^ $r13: .cfa -40 + ^ $r14: .cfa -32 + ^ $r15: .cfa -24 + ^
STACK CFI INIT 4e110 1c0 .cfa: $rbp 16 + $rbp: .cfa -16 + ^ .ra: .cfa -8 + ^ $rbx: .cfa -32 + ^ $r14: .cfa -24 + ^
STACK CFI INIT 4e2d0 400 .cfa: $rbp 16 + $rbp: .cfa -16 + ^ .ra: .cfa -8 + ^ $rbx: .cfa -56 + ^ $r12: .cfa -48 + ^ $r13: .cfa -40 + ^ $r14: .cfa -32 + ^ $r15: .cfa -24 + ^
STACK CFI INIT 4e6d0 1e0 .cfa: $rbp 16 + $rbp: .cfa -16 + ^ .ra: .cfa -8 + ^ $rbx: .cfa -56 + ^ $r12: .cfa -48 + ^ $r13: .cfa -40 + ^ $r14: .cfa -32 + ^ $r15: .cfa -24 + ^
STACK CFI INIT 4e8b0 3c0 .cfa: $rbp 16 + $rbp: .cfa -16 + ^ .ra: .cfa -8 + ^ $rbx: .cfa -56 + ^ $r12: .cfa -48 + ^ $r13: .cfa -40 + ^ $r14: .cfa -32 + ^ $r15: .cfa -24 + ^
STACK CFI INIT 4ec70 290 .cfa: $rbp 16 + $rbp: .cfa -16 + ^ .ra: .cfa -8 + ^ $rbx: .cfa -56 + ^ $r12: .cfa -48 + ^ $r13: .cfa -40 + ^ $r14: .cfa -32 + ^ $r15: .cfa -24 + ^
STACK CFI INIT 4ef00 330 .cfa: $rbp 16 + $rbp: .cfa -16 + ^ .ra: .cfa -8 + ^ $rbx: .cfa -56 + ^ $r12: .cfa -48 + ^ $r13: .cfa -40 + ^ $r14: .cfa -32 + ^ $r15: .cfa -24 + ^
STACK CFI INIT 4f230 2e0 .cfa: $rbp 16 + $rbp: .cfa -16 + ^ .ra: .cfa -8 + ^ $rbx: .cfa -56 + ^ $r12: .cfa -48 + ^ $r13: .cfa -40 + ^ $r14: .cfa -32 + ^ $r15: .cfa -24 + ^
STACK CFI INIT 4f510 150 .cfa: $rbp 16 + $rbp: .cfa -16 + ^ .ra: .cfa -8 + ^ $rbx: .cfa -56 + ^ $r12: .cfa -48 + ^ $r13: .cfa -40 + ^ $r14: .cfa -32 + ^ $r15: .cfa -24 + ^
STACK CFI INIT 4f660 2e0 .cfa: $rbp 16 + $rbp: .cfa -16 + ^ .ra: .cfa -8 + ^ $rbx: .cfa -56 + ^ $r12: .cfa -48 + ^ $r13: .cfa -40 + ^ $r14: .cfa -32 + ^ $r15: .cfa -24 + ^
STACK CFI INIT 4f940 450 .cfa: $rbp 16 + $rbp: .cfa -16 + ^ .ra: .cfa -8 + ^ $rbx: .cfa -24 + ^
STACK CFI INIT 4fd90 b70 .cfa: $rbp 16 + $rbp: .cfa -16 + ^ .ra: .cfa -8 + ^ $rbx: .cfa -56 + ^ $r12: .cfa -48 + ^ $r13: .cfa -40 + ^ $r14: .cfa -32 + ^ $r15: .cfa -24 + ^
STACK CFI INIT 50900 dd0 .cfa: $rbp 16 + $rbp: .cfa -16 + ^ .ra: .cfa -8 + ^ $rbx: .cfa -56 + ^ $r12: .cfa -48 + ^ $r13: .cfa -40 + ^ $r14: .cfa -32 + ^ $r15: .cfa -24 + ^
STACK CFI INIT 516d0 dd0 .cfa: $rbp 16 + $rbp: .cfa -16 + ^ .ra: .cfa -8 + ^ $rbx: .cfa -56 + ^ $r12: .cfa -48 + ^ $r13: .cfa -40 + ^ $r14: .cfa -32 + ^ $r15: .cfa -24 + ^
STACK CFI INIT 524a0 8c0 .cfa: $rbp 16 + $rbp: .cfa -16 + ^ .ra: .cfa -8 + ^ $rbx: .cfa -56 + ^ $r12: .cfa -48 + ^ $r13: .cfa -40 + ^ $r14: .cfa -32 + ^ $r15: .cfa -24 + ^
STACK CFI INIT 52d60 30 .cfa: $rbp 16 + $rbp: .cfa -16 + ^ .ra: .cfa -8 + ^
STACK CFI INIT 52d90 120 .cfa: $rbp 16 + $rbp: .cfa -16 + ^ .ra: .cfa -8 + ^ $rbx: .cfa -48 + ^ $r12: .cfa -40 + ^ $r14: .cfa -32 + ^ $r15: .cfa -24 + ^
STACK CFI INIT 52eb0 70 .cfa: $rbp 16 + $rbp: .cfa -16 + ^ .ra: .cfa -8 + ^ $rbx: .cfa -40 + ^ $r14: .cfa -32 + ^ $r15: .cfa -24 + ^
STACK CFI INIT 52f20 be0 .cfa: $rbp 16 + $rbp: .cfa -16 + ^ .ra: .cfa -8 + ^ $rbx: .cfa -56 + ^ $r12: .cfa -48 + ^ $r13: .cfa -40 + ^ $r14: .cfa -32 + ^ $r15: .cfa -24 + ^
STACK CFI INIT 53b00 60 .cfa: $rbp 16 + $rbp: .cfa -16 + ^ .ra: .cfa -8 + ^
STACK CFI INIT 53b60 90 .cfa: $rbp 16 + $rbp: .cfa -16 + ^ .ra: .cfa -8 + ^ $rbx: .cfa -48 + ^ $r12: .cfa -40 + ^ $r14: .cfa -32 + ^ $r15: .cfa -24 + ^
STACK CFI INIT 53bf0 60 .cfa: $rbp 16 + $rbp: .cfa -16 + ^ .ra: .cfa -8 + ^
STACK CFI INIT 53c50 a0 .cfa: $rbp 16 + $rbp: .cfa -16 + ^ .ra: .cfa -8 + ^ $rbx: .cfa -56 + ^ $r12: .cfa -48 + ^ $r13: .cfa -40 + ^ $r14: .cfa -32 + ^ $r15: .cfa -24 + ^
STACK CFI INIT 53cf0 170 .cfa: $rbp 16 + $rbp: .cfa -16 + ^ .ra: .cfa -8 + ^
STACK CFI INIT 53e60 430 .cfa: $rbp 16 + $rbp: .cfa -16 + ^ .ra: .cfa -8 + ^ $rbx: .cfa -56 + ^ $r12: .cfa -48 + ^ $r13: .cfa -40 + ^ $r14: .cfa -32 + ^ $r15: .cfa -24 + ^
STACK CFI INIT 54290 90 .cfa: $rbp 16 + $rbp: .cfa -16 + ^ .ra: .cfa -8 + ^ $rbx: .cfa -48 + ^ $r12: .cfa -40 + ^ $r14: .cfa -32 + ^ $r15: .cfa -24 + ^
STACK CFI INIT 54320 150 .cfa: $rbp 16 + $rbp: .cfa -16 + ^ .ra: .cfa -8 + ^ $rbx: .cfa -40 + ^ $r14: .cfa -32 + ^ $r15: .cfa -24 + ^
STACK CFI INIT 54470 450 .cfa: $rbp 16 + $rbp: .cfa -16 + ^ .ra: .cfa -8 + ^ $rbx: .cfa -56 + ^ $r12: .cfa -48 + ^ $r13: .cfa -40 + ^ $r14: .cfa -32 + ^ $r15: .cfa -24 + ^
STACK CFI INIT 548c0 40 .cfa: $rbp 16 + $rbp: .cfa -16 + ^ .ra: .cfa -8 + ^
STACK CFI INIT 54900 30 .cfa: $rbp 16 + $rbp: .cfa -16 + ^ .ra: .cfa -8 + ^ $rbx: .cfa -24 + ^
STACK CFI INIT 54930 20 .cfa: $rbp 16 + $rbp: .cfa -16 + ^ .ra: .cfa -8 + ^
STACK CFI INIT 54950 80 .cfa: $rbp 16 + $rbp: .cfa -16 + ^ .ra: .cfa -8 + ^ $rbx: .cfa -24 + ^
STACK CFI INIT 549d0 3d0 .cfa: $rbp 16 + $rbp: .cfa -16 + ^ .ra: .cfa -8 + ^ $rbx: .cfa -56 + ^ $r12: .cfa -48 + ^ $r13: .cfa -40 + ^ $r14: .cfa -32 + ^ $r15: .cfa -24 + ^
STACK CFI INIT 54da0 1c0 .cfa: $rbp 16 + $rbp: .cfa -16 + ^ .ra: .cfa -8 + ^ $rbx: .cfa -56 + ^ $r12: .cfa -48 + ^ $r13: .cfa -40 + ^ $r14: .cfa -32 + ^ $r15: .cfa -24 + ^
STACK CFI INIT 54f60 1f0 .cfa: $rbp 16 + $rbp: .cfa -16 + ^ .ra: .cfa -8 + ^ $rbx: .cfa -56 + ^ $r12: .cfa -48 + ^ $r13: .cfa -40 + ^ $r14: .cfa -32 + ^ $r15: .cfa -24 + ^
STACK CFI INIT 55150 120 .cfa: $rbp 16 + $rbp: .cfa -16 + ^ .ra: .cfa -8 + ^ $rbx: .cfa -48 + ^ $r12: .cfa -40 + ^ $r14: .cfa -32 + ^ $r15: .cfa -24 + ^
STACK CFI INIT 55270 a0 .cfa: $rbp 16 + $rbp: .cfa -16 + ^ .ra: .cfa -8 + ^ $rbx: .cfa -56 + ^ $r12: .cfa -48 + ^ $r13: .cfa -40 + ^ $r14: .cfa -32 + ^ $r15: .cfa -24 + ^
STACK CFI INIT 55310 60 .cfa: $rbp 16 + $rbp: .cfa -16 + ^ .ra: .cfa -8 + ^
STACK CFI INIT 55370 90 .cfa: $rbp 16 + $rbp: .cfa -16 + ^ .ra: .cfa -8 + ^ $rbx: .cfa -48 + ^ $r12: .cfa -40 + ^ $r14: .cfa -32 + ^ $r15: .cfa -24 + ^
STACK CFI INIT 55400 70 .cfa: $rbp 16 + $rbp: .cfa -16 + ^ .ra: .cfa -8 + ^ $rbx: .cfa -24 + ^
STACK CFI INIT 55470 b0 .cfa: $rbp 16 + $rbp: .cfa -16 + ^ .ra: .cfa -8 + ^
STACK CFI INIT 55520 210 .cfa: $rbp 16 + $rbp: .cfa -16 + ^ .ra: .cfa -8 + ^ $rbx: .cfa -40 + ^ $r14: .cfa -32 + ^ $r15: .cfa -24 + ^
STACK CFI INIT 55730 60 .cfa: $rbp 16 + $rbp: .cfa -16 + ^ .ra: .cfa -8 + ^ $rbx: .cfa -48 + ^ $r12: .cfa -40 + ^ $r14: .cfa -32 + ^ $r15: .cfa -24 + ^
STACK CFI INIT 55790 20 .cfa: $rbp 16 + $rbp: .cfa -16 + ^ .ra: .cfa -8 + ^
STACK CFI INIT 557b0 1b0 .cfa: $rbp 16 + $rbp: .cfa -16 + ^ .ra: .cfa -8 + ^ $rbx: .cfa -32 + ^ $r14: .cfa -24 + ^
STACK CFI INIT 55960 5c0 .cfa: $rbp 16 + $rbp: .cfa -16 + ^ .ra: .cfa -8 + ^ $rbx: .cfa -56 + ^ $r12: .cfa -48 + ^ $r13: .cfa -40 + ^ $r14: .cfa -32 + ^ $r15: .cfa -24 + ^
STACK CFI INIT 55f20 a0 .cfa: $rbp 16 + $rbp: .cfa -16 + ^ .ra: .cfa -8 + ^ $rbx: .cfa -40 + ^ $r14: .cfa -32 + ^ $r15: .cfa -24 + ^
STACK CFI INIT 55fc0 60 .cfa: $rbp 16 + $rbp: .cfa -16 + ^ .ra: .cfa -8 + ^ $rbx: .cfa -32 + ^ $r14: .cfa -24 + ^
STACK CFI INIT 56020 b0 .cfa: $rbp 16 + $rbp: .cfa -16 + ^ .ra: .cfa -8 + ^ $rbx: .cfa -48 + ^ $r12: .cfa -40 + ^ $r14: .cfa -32 + ^ $r15: .cfa -24 + ^
STACK CFI INIT 560d0 a0 .cfa: $rbp 16 + $rbp: .cfa -16 + ^ .ra: .cfa -8 + ^ $rbx: .cfa -40 + ^ $r14: .cfa -32 + ^ $r15: .cfa -24 + ^
STACK CFI INIT 56170 b0 .cfa: $rbp 16 + $rbp: .cfa -16 + ^ .ra: .cfa -8 + ^ $rbx: .cfa -48 + ^ $r12: .cfa -40 + ^ $r14: .cfa -32 + ^ $r15: .cfa -24 + ^
STACK CFI INIT 56220 a0 .cfa: $rbp 16 + $rbp: .cfa -16 + ^ .ra: .cfa -8 + ^ $rbx: .cfa -40 + ^ $r14: .cfa -32 + ^ $r15: .cfa -24 + ^
STACK CFI INIT 562c0 b0 .cfa: $rbp 16 + $rbp: .cfa -16 + ^ .ra: .cfa -8 + ^ $rbx: .cfa -48 + ^ $r12: .cfa -40 + ^ $r14: .cfa -32 + ^ $r15: .cfa -24 + ^
STACK CFI INIT 56370 80 .cfa: $rbp 16 + $rbp: .cfa -16 + ^ .ra: .cfa -8 + ^ $rbx: .cfa -32 + ^ $r14: .cfa -24 + ^
STACK CFI INIT 563f0 730 .cfa: $rbp 16 + $rbp: .cfa -16 + ^ .ra: .cfa -8 + ^ $rbx: .cfa -56 + ^ $r12: .cfa -48 + ^ $r13: .cfa -40 + ^ $r14: .cfa -32 + ^ $r15: .cfa -24 + ^
STACK CFI INIT 56b20 5d0 .cfa: $rbp 16 + $rbp: .cfa -16 + ^ .ra: .cfa -8 + ^ $rbx: .cfa -56 + ^ $r12: .cfa -48 + ^ $r13: .cfa -40 + ^ $r14: .cfa -32 + ^ $r15: .cfa -24 + ^
STACK CFI INIT 570f0 100 .cfa: $rbp 16 + $rbp: .cfa -16 + ^ .ra: .cfa -8 + ^ $rbx: .cfa -40 + ^ $r14: .cfa -32 + ^ $r15: .cfa -24 + ^
STACK CFI INIT 571f0 120 .cfa: $rbp 16 + $rbp: .cfa -16 + ^ .ra: .cfa -8 + ^ $rbx: .cfa -48 + ^ $r12: .cfa -40 + ^ $r14: .cfa -32 + ^ $r15: .cfa -24 + ^
STACK CFI INIT 57310 730 .cfa: $rbp 16 + $rbp: .cfa -16 + ^ .ra: .cfa -8 + ^ $rbx: .cfa -56 + ^ $r12: .cfa -48 + ^ $r13: .cfa -40 + ^ $r14: .cfa -32 + ^ $r15: .cfa -24 + ^
STACK CFI INIT 57a40 3c0 .cfa: $rbp 16 + $rbp: .cfa -16 + ^ .ra: .cfa -8 + ^ $rbx: .cfa -56 + ^ $r12: .cfa -48 + ^ $r13: .cfa -40 + ^ $r14: .cfa -32 + ^ $r15: .cfa -24 + ^
STACK CFI INIT 57e00 a10 .cfa: $rbp 16 + $rbp: .cfa -16 + ^ .ra: .cfa -8 + ^ $rbx: .cfa -56 + ^ $r12: .cfa -48 + ^ $r13: .cfa -40 + ^ $r14: .cfa -32 + ^ $r15: .cfa -24 + ^
STACK CFI INIT 58810 d0 .cfa: $rbp 16 + $rbp: .cfa -16 + ^ .ra: .cfa -8 + ^ $rbx: .cfa -48 + ^ $r12: .cfa -40 + ^ $r14: .cfa -32 + ^ $r15: .cfa -24 + ^
STACK CFI INIT 588e0 300 .cfa: $rbp 16 + $rbp: .cfa -16 + ^ .ra: .cfa -8 + ^ $rbx: .cfa -48 + ^ $r12: .cfa -40 + ^ $r14: .cfa -32 + ^ $r15: .cfa -24 + ^
STACK CFI INIT 58be0 a90 .cfa: $rbp 16 + $rbp: .cfa -16 + ^ .ra: .cfa -8 + ^ $rbx: .cfa -56 + ^ $r12: .cfa -48 + ^ $r13: .cfa -40 + ^ $r14: .cfa -32 + ^ $r15: .cfa -24 + ^
STACK CFI INIT 59670 860 .cfa: $rbp 16 + $rbp: .cfa -16 + ^ .ra: .cfa -8 + ^ $rbx: .cfa -56 + ^ $r12: .cfa -48 + ^ $r13: .cfa -40 + ^ $r14: .cfa -32 + ^ $r15: .cfa -24 + ^
STACK CFI INIT 59ed0 f40 .cfa: $rbp 16 + $rbp: .cfa -16 + ^ .ra: .cfa -8 + ^ $rbx: .cfa -56 + ^ $r12: .cfa -48 + ^ $r13: .cfa -40 + ^ $r14: .cfa -32 + ^ $r15: .cfa -24 + ^
STACK CFI INIT 5ae10 180 .cfa: $rbp 16 + $rbp: .cfa -16 + ^ .ra: .cfa -8 + ^ $rbx: .cfa -56 + ^ $r12: .cfa -48 + ^ $r13: .cfa -40 + ^ $r14: .cfa -32 + ^ $r15: .cfa -24 + ^
STACK CFI INIT 5af90 180 .cfa: $rbp 16 + $rbp: .cfa -16 + ^ .ra: .cfa -8 + ^ $rbx: .cfa -48 + ^ $r12: .cfa -40 + ^ $r14: .cfa -32 + ^ $r15: .cfa -24 + ^
STACK CFI INIT 5b110 170 .cfa: $rbp 16 + $rbp: .cfa -16 + ^ .ra: .cfa -8 + ^ $rbx: .cfa -48 + ^ $r12: .cfa -40 + ^ $r14: .cfa -32 + ^ $r15: .cfa -24 + ^
STACK CFI INIT 5b280 70 .cfa: $rbp 16 + $rbp: .cfa -16 + ^ .ra: .cfa -8 + ^
STACK CFI INIT 5b2f0 1d0 .cfa: $rbp 16 + $rbp: .cfa -16 + ^ .ra: .cfa -8 + ^ $rbx: .cfa -56 + ^ $r12: .cfa -48 + ^ $r13: .cfa -40 + ^ $r14: .cfa -32 + ^ $r15: .cfa -24 + ^
STACK CFI INIT 5b4c0 90 .cfa: $rbp 16 + $rbp: .cfa -16 + ^ .ra: .cfa -8 + ^ $rbx: .cfa -48 + ^ $r12: .cfa -40 + ^ $r14: .cfa -32 + ^ $r15: .cfa -24 + ^
STACK CFI INIT 5b550 30 .cfa: $rbp 16 + $rbp: .cfa -16 + ^ .ra: .cfa -8 + ^
STACK CFI INIT 5b580 a0 .cfa: $rbp 16 + $rbp: .cfa -16 + ^ .ra: .cfa -8 + ^ $rbx: .cfa -56 + ^ $r12: .cfa -48 + ^ $r13: .cfa -40 + ^ $r14: .cfa -32 + ^ $r15: .cfa -24 + ^
STACK CFI INIT 5b620 30 .cfa: $rbp 16 + $rbp: .cfa -16 + ^ .ra: .cfa -8 + ^
STACK CFI INIT 5b650 50 .cfa: $rbp 16 + $rbp: .cfa -16 + ^ .ra: .cfa -8 + ^ $rbx: .cfa -32 + ^ $r14: .cfa -24 + ^
STACK CFI INIT 5b6a0 90 .cfa: $rbp 16 + $rbp: .cfa -16 + ^ .ra: .cfa -8 + ^
STACK CFI INIT 5b730 c0 .cfa: $rbp 16 + $rbp: .cfa -16 + ^ .ra: .cfa -8 + ^ $rbx: .cfa -24 + ^
STACK CFI INIT 5b7f0 90 .cfa: $rbp 16 + $rbp: .cfa -16 + ^ .ra: .cfa -8 + ^
STACK CFI INIT 5b880 130 .cfa: $rbp 16 + $rbp: .cfa -16 + ^ .ra: .cfa -8 + ^ $rbx: .cfa -56 + ^ $r12: .cfa -48 + ^ $r13: .cfa -40 + ^ $r14: .cfa -32 + ^ $r15: .cfa -24 + ^
STACK CFI INIT 5b9b0 30 .cfa: $rbp 16 + $rbp: .cfa -16 + ^ .ra: .cfa -8 + ^
STACK CFI INIT 5b9e0 1e0 .cfa: $rbp 16 + $rbp: .cfa -16 + ^ .ra: .cfa -8 + ^ $rbx: .cfa -56 + ^ $r12: .cfa -48 + ^ $r13: .cfa -40 + ^ $r14: .cfa -32 + ^ $r15: .cfa -24 + ^
STACK CFI INIT 5bbc0 30 .cfa: $rbp 16 + $rbp: .cfa -16 + ^ .ra: .cfa -8 + ^
STACK CFI INIT 5bbf0 200 .cfa: $rbp 16 + $rbp: .cfa -16 + ^ .ra: .cfa -8 + ^ $rbx: .cfa -56 + ^ $r12: .cfa -48 + ^ $r13: .cfa -40 + ^ $r14: .cfa -32 + ^ $r15: .cfa -24 + ^
STACK CFI INIT 5bdf0 3b0 .cfa: $rbp 16 + $rbp: .cfa -16 + ^ .ra: .cfa -8 + ^ $rbx: .cfa -56 + ^ $r12: .cfa -48 + ^ $r13: .cfa -40 + ^ $r14: .cfa -32 + ^ $r15: .cfa -24 + ^
STACK CFI INIT 5c1a0 140 .cfa: $rbp 16 + $rbp: .cfa -16 + ^ .ra: .cfa -8 + ^
STACK CFI INIT 5c2e0 100 .cfa: $rbp 16 + $rbp: .cfa -16 + ^ .ra: .cfa -8 + ^ $rbx: .cfa -56 + ^ $r12: .cfa -48 + ^ $r13: .cfa -40 + ^ $r14: .cfa -32 + ^ $r15: .cfa -24 + ^
STACK CFI INIT 5c3e0 110 .cfa: $rbp 16 + $rbp: .cfa -16 + ^ .ra: .cfa -8 + ^ $rbx: .cfa -40 + ^ $r14: .cfa -32 + ^ $r15: .cfa -24 + ^
STACK CFI INIT 5c4f0 60 .cfa: $rbp 16 + $rbp: .cfa -16 + ^ .ra: .cfa -8 + ^ $rbx: .cfa -48 + ^ $r12: .cfa -40 + ^ $r14: .cfa -32 + ^ $r15: .cfa -24 + ^
STACK CFI INIT 5c550 30 .cfa: $rbp 16 + $rbp: .cfa -16 + ^ .ra: .cfa -8 + ^
STACK CFI INIT 5c580 f0 .cfa: $rbp 16 + $rbp: .cfa -16 + ^ .ra: .cfa -8 + ^ $rbx: .cfa -56 + ^ $r12: .cfa -48 + ^ $r13: .cfa -40 + ^ $r14: .cfa -32 + ^ $r15: .cfa -24 + ^
STACK CFI INIT 5c670 3bc0 .cfa: $rbp 16 + $rbp: .cfa -16 + ^ .ra: .cfa -8 + ^ $rbx: .cfa -56 + ^ $r12: .cfa -48 + ^ $r13: .cfa -40 + ^ $r14: .cfa -32 + ^ $r15: .cfa -24 + ^
STACK CFI INIT 60230 240 .cfa: $rbp 16 + $rbp: .cfa -16 + ^ .ra: .cfa -8 + ^ $rbx: .cfa -56 + ^ $r12: .cfa -48 + ^ $r13: .cfa -40 + ^ $r14: .cfa -32 + ^ $r15: .cfa -24 + ^
STACK CFI INIT 60470 160 .cfa: $rbp 16 + $rbp: .cfa -16 + ^ .ra: .cfa -8 + ^ $rbx: .cfa -56 + ^ $r12: .cfa -48 + ^ $r13: .cfa -40 + ^ $r14: .cfa -32 + ^ $r15: .cfa -24 + ^
STACK CFI INIT 605d0 6f0 .cfa: $rbp 16 + $rbp: .cfa -16 + ^ .ra: .cfa -8 + ^ $rbx: .cfa -56 + ^ $r12: .cfa -48 + ^ $r13: .cfa -40 + ^ $r14: .cfa -32 + ^ $r15: .cfa -24 + ^
STACK CFI INIT 60cc0 390 .cfa: $rbp 16 + $rbp: .cfa -16 + ^ .ra: .cfa -8 + ^ $rbx: .cfa -56 + ^ $r12: .cfa -48 + ^ $r13: .cfa -40 + ^ $r14: .cfa -32 + ^ $r15: .cfa -24 + ^
STACK CFI INIT 61050 200 .cfa: $rbp 16 + $rbp: .cfa -16 + ^ .ra: .cfa -8 + ^ $rbx: .cfa -56 + ^ $r12: .cfa -48 + ^ $r13: .cfa -40 + ^ $r14: .cfa -32 + ^ $r15: .cfa -24 + ^
STACK CFI INIT 61250 1e0 .cfa: $rbp 16 + $rbp: .cfa -16 + ^ .ra: .cfa -8 + ^
STACK CFI INIT 61430 70 .cfa: $rbp 16 + $rbp: .cfa -16 + ^ .ra: .cfa -8 + ^ $rbx: .cfa -32 + ^ $r14: .cfa -24 + ^
STACK CFI INIT 614a0 90 .cfa: $rbp 16 + $rbp: .cfa -16 + ^ .ra: .cfa -8 + ^ $rbx: .cfa -48 + ^ $r12: .cfa -40 + ^ $r14: .cfa -32 + ^ $r15: .cfa -24 + ^
STACK CFI INIT 61530 a0 .cfa: $rbp 16 + $rbp: .cfa -16 + ^ .ra: .cfa -8 + ^ $rbx: .cfa -40 + ^ $r14: .cfa -32 + ^ $r15: .cfa -24 + ^
STACK CFI INIT 615d0 110 .cfa: $rbp 16 + $rbp: .cfa -16 + ^ .ra: .cfa -8 + ^ $rbx: .cfa -56 + ^ $r12: .cfa -48 + ^ $r13: .cfa -40 + ^ $r14: .cfa -32 + ^ $r15: .cfa -24 + ^
STACK CFI INIT 616e0 b0 .cfa: $rbp 16 + $rbp: .cfa -16 + ^ .ra: .cfa -8 + ^ $rbx: .cfa -56 + ^ $r12: .cfa -48 + ^ $r13: .cfa -40 + ^ $r14: .cfa -32 + ^ $r15: .cfa -24 + ^
STACK CFI INIT 61790 90 .cfa: $rbp 16 + $rbp: .cfa -16 + ^ .ra: .cfa -8 + ^ $rbx: .cfa -48 + ^ $r12: .cfa -40 + ^ $r14: .cfa -32 + ^ $r15: .cfa -24 + ^
STACK CFI INIT 61820 d0 .cfa: $rbp 16 + $rbp: .cfa -16 + ^ .ra: .cfa -8 + ^ $rbx: .cfa -56 + ^ $r12: .cfa -48 + ^ $r13: .cfa -40 + ^ $r14: .cfa -32 + ^ $r15: .cfa -24 + ^
STACK CFI INIT 618f0 e0 .cfa: $rbp 16 + $rbp: .cfa -16 + ^ .ra: .cfa -8 + ^
STACK CFI INIT 619d0 70 .cfa: $rbp 16 + $rbp: .cfa -16 + ^ .ra: .cfa -8 + ^ $rbx: .cfa -24 + ^
STACK CFI INIT 61a40 a0 .cfa: $rbp 16 + $rbp: .cfa -16 + ^ .ra: .cfa -8 + ^ $rbx: .cfa -48 + ^ $r12: .cfa -40 + ^ $r14: .cfa -32 + ^ $r15: .cfa -24 + ^
STACK CFI INIT 61ae0 120 .cfa: $rbp 16 + $rbp: .cfa -16 + ^ .ra: .cfa -8 + ^ $rbx: .cfa -56 + ^ $r12: .cfa -48 + ^ $r13: .cfa -40 + ^ $r14: .cfa -32 + ^ $r15: .cfa -24 + ^
STACK CFI INIT 61c00 90 .cfa: $rbp 16 + $rbp: .cfa -16 + ^ .ra: .cfa -8 + ^ $rbx: .cfa -32 + ^ $r14: .cfa -24 + ^
STACK CFI INIT 61c90 b0 .cfa: $rbp 16 + $rbp: .cfa -16 + ^ .ra: .cfa -8 + ^
STACK CFI INIT 61d40 c0 .cfa: $rbp 16 + $rbp: .cfa -16 + ^ .ra: .cfa -8 + ^ $rbx: .cfa -48 + ^ $r12: .cfa -40 + ^ $r14: .cfa -32 + ^ $r15: .cfa -24 + ^
STACK CFI INIT 61e00 160 .cfa: $rbp 16 + $rbp: .cfa -16 + ^ .ra: .cfa -8 + ^ $rbx: .cfa -56 + ^ $r12: .cfa -48 + ^ $r13: .cfa -40 + ^ $r14: .cfa -32 + ^ $r15: .cfa -24 + ^
STACK CFI INIT 61f60 40 .cfa: $rbp 16 + $rbp: .cfa -16 + ^ .ra: .cfa -8 + ^ $rbx: .cfa -24 + ^
STACK CFI INIT 61fa0 1e0 .cfa: $rbp 16 + $rbp: .cfa -16 + ^ .ra: .cfa -8 + ^ $rbx: .cfa -56 + ^ $r12: .cfa -48 + ^ $r13: .cfa -40 + ^ $r14: .cfa -32 + ^ $r15: .cfa -24 + ^
STACK CFI INIT 62180 20 .cfa: $rbp 16 + $rbp: .cfa -16 + ^ .ra: .cfa -8 + ^
STACK CFI INIT 621a0 e0 .cfa: $rbp 16 + $rbp: .cfa -16 + ^ .ra: .cfa -8 + ^ $rbx: .cfa -32 + ^ $r14: .cfa -24 + ^
STACK CFI INIT 62280 100 .cfa: $rbp 16 + $rbp: .cfa -16 + ^ .ra: .cfa -8 + ^ $rbx: .cfa -40 + ^ $r14: .cfa -32 + ^ $r15: .cfa -24 + ^
STACK CFI INIT 62380 610 .cfa: $rbp 16 + $rbp: .cfa -16 + ^ .ra: .cfa -8 + ^ $rbx: .cfa -56 + ^ $r12: .cfa -48 + ^ $r13: .cfa -40 + ^ $r14: .cfa -32 + ^ $r15: .cfa -24 + ^
STACK CFI INIT 62990 1e0 .cfa: $rbp 16 + $rbp: .cfa -16 + ^ .ra: .cfa -8 + ^ $rbx: .cfa -48 + ^ $r12: .cfa -40 + ^ $r14: .cfa -32 + ^ $r15: .cfa -24 + ^
STACK CFI INIT 62b70 200 .cfa: $rbp 16 + $rbp: .cfa -16 + ^ .ra: .cfa -8 + ^ $rbx: .cfa -56 + ^ $r12: .cfa -48 + ^ $r13: .cfa -40 + ^ $r14: .cfa -32 + ^ $r15: .cfa -24 + ^
STACK CFI INIT 62d70 270 .cfa: $rbp 16 + $rbp: .cfa -16 + ^ .ra: .cfa -8 + ^ $rbx: .cfa -56 + ^ $r12: .cfa -48 + ^ $r13: .cfa -40 + ^ $r14: .cfa -32 + ^ $r15: .cfa -24 + ^
STACK CFI INIT 62fe0 1a0 .cfa: $rbp 16 + $rbp: .cfa -16 + ^ .ra: .cfa -8 + ^ $rbx: .cfa -56 + ^ $r12: .cfa -48 + ^ $r13: .cfa -40 + ^ $r14: .cfa -32 + ^ $r15: .cfa -24 + ^
STACK CFI INIT 63180 170 .cfa: $rbp 16 + $rbp: .cfa -16 + ^ .ra: .cfa -8 + ^ $rbx: .cfa -32 + ^ $r14: .cfa -24 + ^
STACK CFI INIT 632f0 190 .cfa: $rbp 16 + $rbp: .cfa -16 + ^ .ra: .cfa -8 + ^ $rbx: .cfa -48 + ^ $r12: .cfa -40 + ^ $r14: .cfa -32 + ^ $r15: .cfa -24 + ^
STACK CFI INIT 63480 1f0 .cfa: $rbp 16 + $rbp: .cfa -16 + ^ .ra: .cfa -8 + ^ $rbx: .cfa -24 + ^
STACK CFI INIT 63670 100 .cfa: $rbp 16 + $rbp: .cfa -16 + ^ .ra: .cfa -8 + ^
STACK CFI INIT 63770 180 .cfa: $rbp 16 + $rbp: .cfa -16 + ^ .ra: .cfa -8 + ^ $rbx: .cfa -56 + ^ $r12: .cfa -48 + ^ $r13: .cfa -40 + ^ $r14: .cfa -32 + ^ $r15: .cfa -24 + ^
STACK CFI INIT 638f0 990 .cfa: $rbp 16 + $rbp: .cfa -16 + ^ .ra: .cfa -8 + ^ $rbx: .cfa -56 + ^ $r12: .cfa -48 + ^ $r13: .cfa -40 + ^ $r14: .cfa -32 + ^ $r15: .cfa -24 + ^
STACK CFI INIT 64280 1e0 .cfa: $rbp 16 + $rbp: .cfa -16 + ^ .ra: .cfa -8 + ^ $rbx: .cfa -40 + ^ $r14: .cfa -32 + ^ $r15: .cfa -24 + ^
STACK CFI INIT 64460 e0 .cfa: $rbp 16 + $rbp: .cfa -16 + ^ .ra: .cfa -8 + ^ $rbx: .cfa -48 + ^ $r12: .cfa -40 + ^ $r14: .cfa -32 + ^ $r15: .cfa -24 + ^
STACK CFI INIT 64540 170 .cfa: $rbp 16 + $rbp: .cfa -16 + ^ .ra: .cfa -8 + ^ $rbx: .cfa -56 + ^ $r12: .cfa -48 + ^ $r13: .cfa -40 + ^ $r14: .cfa -32 + ^ $r15: .cfa -24 + ^
STACK CFI INIT 646b0 2d0 .cfa: $rbp 16 + $rbp: .cfa -16 + ^ .ra: .cfa -8 + ^ $rbx: .cfa -56 + ^ $r12: .cfa -48 + ^ $r13: .cfa -40 + ^ $r14: .cfa -32 + ^ $r15: .cfa -24 + ^
STACK CFI INIT 64980 2b0 .cfa: $rbp 16 + $rbp: .cfa -16 + ^ .ra: .cfa -8 + ^ $rbx: .cfa -56 + ^ $r12: .cfa -48 + ^ $r13: .cfa -40 + ^ $r14: .cfa -32 + ^ $r15: .cfa -24 + ^
STACK CFI INIT 64c30 2f0 .cfa: $rbp 16 + $rbp: .cfa -16 + ^ .ra: .cfa -8 + ^ $rbx: .cfa -56 + ^ $r12: .cfa -48 + ^ $r13: .cfa -40 + ^ $r14: .cfa -32 + ^ $r15: .cfa -24 + ^
STACK CFI INIT 64f20 2d0 .cfa: $rbp 16 + $rbp: .cfa -16 + ^ .ra: .cfa -8 + ^ $rbx: .cfa -56 + ^ $r12: .cfa -48 + ^ $r13: .cfa -40 + ^ $r14: .cfa -32 + ^ $r15: .cfa -24 + ^
STACK CFI INIT 651f0 310 .cfa: $rbp 16 + $rbp: .cfa -16 + ^ .ra: .cfa -8 + ^ $rbx: .cfa -48 + ^ $r12: .cfa -40 + ^ $r14: .cfa -32 + ^ $r15: .cfa -24 + ^
STACK CFI INIT 65500 40 .cfa: $rbp 16 + $rbp: .cfa -16 + ^ .ra: .cfa -8 + ^
STACK CFI INIT 65540 f0 .cfa: $rbp 16 + $rbp: .cfa -16 + ^ .ra: .cfa -8 + ^ $rbx: .cfa -24 + ^
STACK CFI INIT 65630 a0 .cfa: $rbp 16 + $rbp: .cfa -16 + ^ .ra: .cfa -8 + ^
STACK CFI INIT 656d0 90 .cfa: $rbp 16 + $rbp: .cfa -16 + ^ .ra: .cfa -8 + ^ $rbx: .cfa -24 + ^
STACK CFI INIT 65760 80 .cfa: $rbp 16 + $rbp: .cfa -16 + ^ .ra: .cfa -8 + ^ $rbx: .cfa -24 + ^
STACK CFI INIT 657e0 d0 .cfa: $rbp 16 + $rbp: .cfa -16 + ^ .ra: .cfa -8 + ^ $rbx: .cfa -48 + ^ $r12: .cfa -40 + ^ $r14: .cfa -32 + ^ $r15: .cfa -24 + ^
STACK CFI INIT 658b0 90 .cfa: $rbp 16 + $rbp: .cfa -16 + ^ .ra: .cfa -8 + ^ $rbx: .cfa -24 + ^
STACK CFI INIT 65940 80 .cfa: $rbp 16 + $rbp: .cfa -16 + ^ .ra: .cfa -8 + ^ $rbx: .cfa -24 + ^
STACK CFI INIT 659c0 d0 .cfa: $rbp 16 + $rbp: .cfa -16 + ^ .ra: .cfa -8 + ^ $rbx: .cfa -48 + ^ $r12: .cfa -40 + ^ $r14: .cfa -32 + ^ $r15: .cfa -24 + ^
STACK CFI INIT 65a90 d0 .cfa: $rbp 16 + $rbp: .cfa -16 + ^ .ra: .cfa -8 + ^ $rbx: .cfa -48 + ^ $r12: .cfa -40 + ^ $r14: .cfa -32 + ^ $r15: .cfa -24 + ^
STACK CFI INIT 65b60 90 .cfa: $rbp 16 + $rbp: .cfa -16 + ^ .ra: .cfa -8 + ^ $rbx: .cfa -24 + ^
STACK CFI INIT 65bf0 80 .cfa: $rbp 16 + $rbp: .cfa -16 + ^ .ra: .cfa -8 + ^ $rbx: .cfa -24 + ^
STACK CFI INIT 65c70 d0 .cfa: $rbp 16 + $rbp: .cfa -16 + ^ .ra: .cfa -8 + ^ $rbx: .cfa -48 + ^ $r12: .cfa -40 + ^ $r14: .cfa -32 + ^ $r15: .cfa -24 + ^
STACK CFI INIT 65d40 3a0 .cfa: $rbp 16 + $rbp: .cfa -16 + ^ .ra: .cfa -8 + ^ $rbx: .cfa -56 + ^ $r12: .cfa -48 + ^ $r13: .cfa -40 + ^ $r14: .cfa -32 + ^ $r15: .cfa -24 + ^
STACK CFI INIT 660e0 160 .cfa: $rbp 16 + $rbp: .cfa -16 + ^ .ra: .cfa -8 + ^
STACK CFI INIT 66240 b0 .cfa: $rbp 16 + $rbp: .cfa -16 + ^ .ra: .cfa -8 + ^ $rbx: .cfa -24 + ^
STACK CFI INIT 662f0 40 .cfa: $rbp 16 + $rbp: .cfa -16 + ^ .ra: .cfa -8 + ^
STACK CFI INIT 66330 4c0 .cfa: $rbp 16 + $rbp: .cfa -16 + ^ .ra: .cfa -8 + ^ $rbx: .cfa -56 + ^ $r12: .cfa -48 + ^ $r13: .cfa -40 + ^ $r14: .cfa -32 + ^ $r15: .cfa -24 + ^
STACK CFI INIT 667f0 200 .cfa: $rbp 16 + $rbp: .cfa -16 + ^ .ra: .cfa -8 + ^ $rbx: .cfa -56 + ^ $r12: .cfa -48 + ^ $r13: .cfa -40 + ^ $r14: .cfa -32 + ^ $r15: .cfa -24 + ^
STACK CFI INIT 669f0 90 .cfa: $rbp 16 + $rbp: .cfa -16 + ^ .ra: .cfa -8 + ^ $rbx: .cfa -40 + ^ $r14: .cfa -32 + ^ $r15: .cfa -24 + ^
STACK CFI INIT 66a80 a0 .cfa: $rbp 16 + $rbp: .cfa -16 + ^ .ra: .cfa -8 + ^ $rbx: .cfa -32 + ^ $r14: .cfa -24 + ^
STACK CFI INIT 66b20 270 .cfa: $rbp 16 + $rbp: .cfa -16 + ^ .ra: .cfa -8 + ^
STACK CFI INIT 66d90 90 .cfa: $rbp 16 + $rbp: .cfa -16 + ^ .ra: .cfa -8 + ^ $rbx: .cfa -40 + ^ $r14: .cfa -32 + ^ $r15: .cfa -24 + ^
STACK CFI INIT 66e20 2f0 .cfa: $rbp 16 + $rbp: .cfa -16 + ^ .ra: .cfa -8 + ^ $rbx: .cfa -56 + ^ $r12: .cfa -48 + ^ $r13: .cfa -40 + ^ $r14: .cfa -32 + ^ $r15: .cfa -24 + ^
STACK CFI INIT 67110 b0 .cfa: $rbp 16 + $rbp: .cfa -16 + ^ .ra: .cfa -8 + ^ $rbx: .cfa -24 + ^
STACK CFI INIT 671c0 80 .cfa: $rbp 16 + $rbp: .cfa -16 + ^ .ra: .cfa -8 + ^ $rbx: .cfa -32 + ^ $r14: .cfa -24 + ^
STACK CFI INIT 67240 40 .cfa: $rbp 16 + $rbp: .cfa -16 + ^ .ra: .cfa -8 + ^ $rbx: .cfa -24 + ^
STACK CFI INIT 67280 180 .cfa: $rbp 16 + $rbp: .cfa -16 + ^ .ra: .cfa -8 + ^ $rbx: .cfa -40 + ^ $r14: .cfa -32 + ^ $r15: .cfa -24 + ^
STACK CFI INIT 67400 f0 .cfa: $rbp 16 + $rbp: .cfa -16 + ^ .ra: .cfa -8 + ^
STACK CFI INIT 674f0 60 .cfa: $rbp 16 + $rbp: .cfa -16 + ^ .ra: .cfa -8 + ^ $rbx: .cfa -32 + ^ $r14: .cfa -24 + ^
STACK CFI INIT 67550 150 .cfa: $rbp 16 + $rbp: .cfa -16 + ^ .ra: .cfa -8 + ^ $rbx: .cfa -40 + ^ $r14: .cfa -32 + ^ $r15: .cfa -24 + ^
STACK CFI INIT 676a0 110 .cfa: $rbp 16 + $rbp: .cfa -16 + ^ .ra: .cfa -8 + ^
STACK CFI INIT 677b0 50 .cfa: $rbp 16 + $rbp: .cfa -16 + ^ .ra: .cfa -8 + ^ $rbx: .cfa -24 + ^
STACK CFI INIT 67800 10 .cfa: $rbp 16 + $rbp: .cfa -16 + ^ .ra: .cfa -8 + ^
STACK CFI INIT 67810 200 .cfa: $rbp 16 + $rbp: .cfa -16 + ^ .ra: .cfa -8 + ^ $rbx: .cfa -48 + ^ $r12: .cfa -40 + ^ $r14: .cfa -32 + ^ $r15: .cfa -24 + ^
STACK CFI INIT 67a10 70 .cfa: $rbp 16 + $rbp: .cfa -16 + ^ .ra: .cfa -8 + ^ $rbx: .cfa -56 + ^ $r12: .cfa -48 + ^ $r13: .cfa -40 + ^ $r14: .cfa -32 + ^ $r15: .cfa -24 + ^
STACK CFI INIT 67a80 70 .cfa: $rbp 16 + $rbp: .cfa -16 + ^ .ra: .cfa -8 + ^ $rbx: .cfa -48 + ^ $r12: .cfa -40 + ^ $r14: .cfa -32 + ^ $r15: .cfa -24 + ^
STACK CFI INIT 67af0 20 .cfa: $rbp 16 + $rbp: .cfa -16 + ^ .ra: .cfa -8 + ^
STACK CFI INIT 67b10 80 .cfa: $rbp 16 + $rbp: .cfa -16 + ^ .ra: .cfa -8 + ^ $rbx: .cfa -32 + ^ $r14: .cfa -24 + ^
STACK CFI INIT 67b90 280 .cfa: $rbp 16 + $rbp: .cfa -16 + ^ .ra: .cfa -8 + ^
STACK CFI INIT 67e10 110 .cfa: $rbp 16 + $rbp: .cfa -16 + ^ .ra: .cfa -8 + ^ $rbx: .cfa -48 + ^ $r12: .cfa -40 + ^ $r14: .cfa -32 + ^ $r15: .cfa -24 + ^
STACK CFI INIT 67f20 70 .cfa: $rbp 16 + $rbp: .cfa -16 + ^ .ra: .cfa -8 + ^
STACK CFI INIT 67f90 3e0 .cfa: $rbp 16 + $rbp: .cfa -16 + ^ .ra: .cfa -8 + ^ $rbx: .cfa -56 + ^ $r12: .cfa -48 + ^ $r13: .cfa -40 + ^ $r14: .cfa -32 + ^ $r15: .cfa -24 + ^
STACK CFI INIT 68370 30 .cfa: $rbp 16 + $rbp: .cfa -16 + ^ .ra: .cfa -8 + ^
STACK CFI INIT 683a0 d0 .cfa: $rbp 16 + $rbp: .cfa -16 + ^ .ra: .cfa -8 + ^ $rbx: .cfa -56 + ^ $r12: .cfa -48 + ^ $r13: .cfa -40 + ^ $r14: .cfa -32 + ^ $r15: .cfa -24 + ^
STACK CFI INIT 68470 40 .cfa: $rbp 16 + $rbp: .cfa -16 + ^ .ra: .cfa -8 + ^
STACK CFI INIT 684b0 b0 .cfa: $rbp 16 + $rbp: .cfa -16 + ^ .ra: .cfa -8 + ^ $rbx: .cfa -56 + ^ $r12: .cfa -48 + ^ $r13: .cfa -40 + ^ $r14: .cfa -32 + ^ $r15: .cfa -24 + ^
STACK CFI INIT 68560 a0 .cfa: $rbp 16 + $rbp: .cfa -16 + ^ .ra: .cfa -8 + ^
STACK CFI INIT 68600 90 .cfa: $rbp 16 + $rbp: .cfa -16 + ^ .ra: .cfa -8 + ^ $rbx: .cfa -24 + ^
STACK CFI INIT 68690 10 .cfa: $rbp 16 + $rbp: .cfa -16 + ^ .ra: .cfa -8 + ^
STACK CFI INIT 686a0 70 .cfa: $rbp 16 + $rbp: .cfa -16 + ^ .ra: .cfa -8 + ^ $rbx: .cfa -32 + ^ $r14: .cfa -24 + ^
STACK CFI INIT 68710 50 .cfa: $rbp 16 + $rbp: .cfa -16 + ^ .ra: .cfa -8 + ^ $rbx: .cfa -24 + ^
STACK CFI INIT 68760 6f0 .cfa: $rbp 16 + $rbp: .cfa -16 + ^ .ra: .cfa -8 + ^ $rbx: .cfa -56 + ^ $r12: .cfa -48 + ^ $r13: .cfa -40 + ^ $r14: .cfa -32 + ^ $r15: .cfa -24 + ^
STACK CFI INIT 68e50 30 .cfa: $rbp 16 + $rbp: .cfa -16 + ^ .ra: .cfa -8 + ^
STACK CFI INIT 68e80 a0 .cfa: $rbp 16 + $rbp: .cfa -16 + ^ .ra: .cfa -8 + ^ $rbx: .cfa -24 + ^
STACK CFI INIT 68f20 f0 .cfa: $rbp 16 + $rbp: .cfa -16 + ^ .ra: .cfa -8 + ^ $rbx: .cfa -40 + ^ $r14: .cfa -32 + ^ $r15: .cfa -24 + ^
STACK CFI INIT 69010 140 .cfa: $rbp 16 + $rbp: .cfa -16 + ^ .ra: .cfa -8 + ^
STACK CFI INIT 69150 f0 .cfa: $rbp 16 + $rbp: .cfa -16 + ^ .ra: .cfa -8 + ^ $rbx: .cfa -40 + ^ $r14: .cfa -32 + ^ $r15: .cfa -24 + ^
STACK CFI INIT 69240 e0 .cfa: $rbp 16 + $rbp: .cfa -16 + ^ .ra: .cfa -8 + ^
STACK CFI INIT 69320 90 .cfa: $rbp 16 + $rbp: .cfa -16 + ^ .ra: .cfa -8 + ^ $rbx: .cfa -40 + ^ $r14: .cfa -32 + ^ $r15: .cfa -24 + ^
STACK CFI INIT 693b0 a0 .cfa: $rbp 16 + $rbp: .cfa -16 + ^ .ra: .cfa -8 + ^ $rbx: .cfa -48 + ^ $r12: .cfa -40 + ^ $r14: .cfa -32 + ^ $r15: .cfa -24 + ^
STACK CFI INIT 69450 420 .cfa: $rbp 16 + $rbp: .cfa -16 + ^ .ra: .cfa -8 + ^ $rbx: .cfa -56 + ^ $r12: .cfa -48 + ^ $r13: .cfa -40 + ^ $r14: .cfa -32 + ^ $r15: .cfa -24 + ^
STACK CFI INIT 69870 f0 .cfa: $rbp 16 + $rbp: .cfa -16 + ^ .ra: .cfa -8 + ^ $rbx: .cfa -56 + ^ $r12: .cfa -48 + ^ $r13: .cfa -40 + ^ $r14: .cfa -32 + ^ $r15: .cfa -24 + ^
STACK CFI INIT 69960 90 .cfa: $rbp 16 + $rbp: .cfa -16 + ^ .ra: .cfa -8 + ^ $rbx: .cfa -48 + ^ $r12: .cfa -40 + ^ $r14: .cfa -32 + ^ $r15: .cfa -24 + ^
STACK CFI INIT 699f0 10 .cfa: $rbp 16 + $rbp: .cfa -16 + ^ .ra: .cfa -8 + ^
STACK CFI INIT 69a00 140 .cfa: $rbp 16 + $rbp: .cfa -16 + ^ .ra: .cfa -8 + ^ $rbx: .cfa -56 + ^ $r12: .cfa -48 + ^ $r13: .cfa -40 + ^ $r14: .cfa -32 + ^ $r15: .cfa -24 + ^
STACK CFI INIT 69b40 110 .cfa: $rbp 16 + $rbp: .cfa -16 + ^ .ra: .cfa -8 + ^ $rbx: .cfa -56 + ^ $r12: .cfa -48 + ^ $r13: .cfa -40 + ^ $r14: .cfa -32 + ^ $r15: .cfa -24 + ^
STACK CFI INIT 69c50 5d0 .cfa: $rbp 16 + $rbp: .cfa -16 + ^ .ra: .cfa -8 + ^ $rbx: .cfa -56 + ^ $r12: .cfa -48 + ^ $r13: .cfa -40 + ^ $r14: .cfa -32 + ^ $r15: .cfa -24 + ^
STACK CFI INIT 6a220 100 .cfa: $rbp 16 + $rbp: .cfa -16 + ^ .ra: .cfa -8 + ^ $rbx: .cfa -32 + ^ $r14: .cfa -24 + ^
STACK CFI INIT 6a320 110 .cfa: $rbp 16 + $rbp: .cfa -16 + ^ .ra: .cfa -8 + ^
STACK CFI INIT 6a430 b0 .cfa: $rbp 16 + $rbp: .cfa -16 + ^ .ra: .cfa -8 + ^ $rbx: .cfa -56 + ^ $r12: .cfa -48 + ^ $r13: .cfa -40 + ^ $r14: .cfa -32 + ^ $r15: .cfa -24 + ^
STACK CFI INIT 6a4e0 330 .cfa: $rbp 16 + $rbp: .cfa -16 + ^ .ra: .cfa -8 + ^
STACK CFI INIT 6a810 50 .cfa: $rbp 16 + $rbp: .cfa -16 + ^ .ra: .cfa -8 + ^ $rbx: .cfa -32 + ^ $r14: .cfa -24 + ^
STACK CFI INIT 6a860 30 .cfa: $rbp 16 + $rbp: .cfa -16 + ^ .ra: .cfa -8 + ^
STACK CFI INIT 6a890 50 .cfa: $rbp 16 + $rbp: .cfa -16 + ^ .ra: .cfa -8 + ^ $rbx: .cfa -32 + ^ $r14: .cfa -24 + ^
STACK CFI INIT 6a8e0 30 .cfa: $rbp 16 + $rbp: .cfa -16 + ^ .ra: .cfa -8 + ^
STACK CFI INIT 6a910 50 .cfa: $rbp 16 + $rbp: .cfa -16 + ^ .ra: .cfa -8 + ^ $rbx: .cfa -32 + ^ $r14: .cfa -24 + ^
STACK CFI INIT 6a960 100 .cfa: $rbp 16 + $rbp: .cfa -16 + ^ .ra: .cfa -8 + ^ $rbx: .cfa -40 + ^ $r14: .cfa -32 + ^ $r15: .cfa -24 + ^
STACK CFI INIT 6aa60 100 .cfa: $rbp 16 + $rbp: .cfa -16 + ^ .ra: .cfa -8 + ^ $rbx: .cfa -40 + ^ $r14: .cfa -32 + ^ $r15: .cfa -24 + ^
STACK CFI INIT 6ab60 100 .cfa: $rbp 16 + $rbp: .cfa -16 + ^ .ra: .cfa -8 + ^ $rbx: .cfa -40 + ^ $r14: .cfa -32 + ^ $r15: .cfa -24 + ^
STACK CFI INIT 6ac60 100 .cfa: $rbp 16 + $rbp: .cfa -16 + ^ .ra: .cfa -8 + ^ $rbx: .cfa -40 + ^ $r14: .cfa -32 + ^ $r15: .cfa -24 + ^
STACK CFI INIT 6ad60 180 .cfa: $rbp 16 + $rbp: .cfa -16 + ^ .ra: .cfa -8 + ^
STACK CFI INIT 6aee0 180 .cfa: $rbp 16 + $rbp: .cfa -16 + ^ .ra: .cfa -8 + ^ $rbx: .cfa -24 + ^
STACK CFI INIT 6b060 100 .cfa: $rbp 16 + $rbp: .cfa -16 + ^ .ra: .cfa -8 + ^
STACK CFI INIT 6b160 80 .cfa: $rbp 16 + $rbp: .cfa -16 + ^ .ra: .cfa -8 + ^ $rbx: .cfa -32 + ^ $r14: .cfa -24 + ^
STACK CFI INIT 6b1e0 d0 .cfa: $rbp 16 + $rbp: .cfa -16 + ^ .ra: .cfa -8 + ^ $rbx: .cfa -48 + ^ $r12: .cfa -40 + ^ $r14: .cfa -32 + ^ $r15: .cfa -24 + ^
STACK CFI INIT 6b2b0 10 .cfa: $rbp 16 + $rbp: .cfa -16 + ^ .ra: .cfa -8 + ^
STACK CFI INIT 6b2c0 a0 .cfa: $rbp 16 + $rbp: .cfa -16 + ^ .ra: .cfa -8 + ^ $rbx: .cfa -40 + ^ $r14: .cfa -32 + ^ $r15: .cfa -24 + ^
STACK CFI INIT 6b360 70 .cfa: $rbp 16 + $rbp: .cfa -16 + ^ .ra: .cfa -8 + ^
STACK CFI INIT 6b3d0 e0 .cfa: $rbp 16 + $rbp: .cfa -16 + ^ .ra: .cfa -8 + ^ $rbx: .cfa -56 + ^ $r12: .cfa -48 + ^ $r13: .cfa -40 + ^ $r14: .cfa -32 + ^ $r15: .cfa -24 + ^
STACK CFI INIT 6b4b0 70 .cfa: $rbp 16 + $rbp: .cfa -16 + ^ .ra: .cfa -8 + ^
STACK CFI INIT 6b520 e0 .cfa: $rbp 16 + $rbp: .cfa -16 + ^ .ra: .cfa -8 + ^ $rbx: .cfa -40 + ^ $r14: .cfa -32 + ^ $r15: .cfa -24 + ^
STACK CFI INIT 6b600 e0 .cfa: $rbp 16 + $rbp: .cfa -16 + ^ .ra: .cfa -8 + ^
STACK CFI INIT 6b6e0 70 .cfa: $rbp 16 + $rbp: .cfa -16 + ^ .ra: .cfa -8 + ^ $rbx: .cfa -32 + ^ $r14: .cfa -24 + ^
STACK CFI INIT 6b750 b0 .cfa: $rbp 16 + $rbp: .cfa -16 + ^ .ra: .cfa -8 + ^ $rbx: .cfa -32 + ^ $r14: .cfa -24 + ^
STACK CFI INIT 6b800 70 .cfa: $rbp 16 + $rbp: .cfa -16 + ^ .ra: .cfa -8 + ^
STACK CFI INIT 6b870 50 .cfa: $rbp 16 + $rbp: .cfa -16 + ^ .ra: .cfa -8 + ^ $rbx: .cfa -32 + ^ $r14: .cfa -24 + ^
STACK CFI INIT 6b8c0 f0 .cfa: $rbp 16 + $rbp: .cfa -16 + ^ .ra: .cfa -8 + ^ $rbx: .cfa -56 + ^ $r12: .cfa -48 + ^ $r13: .cfa -40 + ^ $r14: .cfa -32 + ^ $r15: .cfa -24 + ^
STACK CFI INIT 6b9b0 100 .cfa: $rbp 16 + $rbp: .cfa -16 + ^ .ra: .cfa -8 + ^ $rbx: .cfa -56 + ^ $r12: .cfa -48 + ^ $r13: .cfa -40 + ^ $r14: .cfa -32 + ^ $r15: .cfa -24 + ^
STACK CFI INIT 6bab0 140 .cfa: $rbp 16 + $rbp: .cfa -16 + ^ .ra: .cfa -8 + ^ $rbx: .cfa -56 + ^ $r12: .cfa -48 + ^ $r13: .cfa -40 + ^ $r14: .cfa -32 + ^ $r15: .cfa -24 + ^
STACK CFI INIT 6bbf0 60 .cfa: $rbp 16 + $rbp: .cfa -16 + ^ .ra: .cfa -8 + ^
STACK CFI INIT 6bc50 c0 .cfa: $rbp 16 + $rbp: .cfa -16 + ^ .ra: .cfa -8 + ^ $rbx: .cfa -24 + ^
STACK CFI INIT 6bd10 160 .cfa: $rbp 16 + $rbp: .cfa -16 + ^ .ra: .cfa -8 + ^
STACK CFI INIT 6be70 50 .cfa: $rbp 16 + $rbp: .cfa -16 + ^ .ra: .cfa -8 + ^ $rbx: .cfa -32 + ^ $r14: .cfa -24 + ^
STACK CFI INIT 6bec0 20 .cfa: $rbp 16 + $rbp: .cfa -16 + ^ .ra: .cfa -8 + ^
STACK CFI INIT 6bee0 e0 .cfa: $rbp 16 + $rbp: .cfa -16 + ^ .ra: .cfa -8 + ^ $rbx: .cfa -48 + ^ $r12: .cfa -40 + ^ $r14: .cfa -32 + ^ $r15: .cfa -24 + ^
STACK CFI INIT 6bfc0 40 .cfa: $rbp 16 + $rbp: .cfa -16 + ^ .ra: .cfa -8 + ^
STACK CFI INIT 6c000 60 .cfa: $rbp 16 + $rbp: .cfa -16 + ^ .ra: .cfa -8 + ^ $rbx: .cfa -24 + ^
STACK CFI INIT 6c060 10 .cfa: $rbp 16 + $rbp: .cfa -16 + ^ .ra: .cfa -8 + ^
STACK CFI INIT 6c070 170 .cfa: $rbp 16 + $rbp: .cfa -16 + ^ .ra: .cfa -8 + ^ $rbx: .cfa -48 + ^ $r12: .cfa -40 + ^ $r14: .cfa -32 + ^ $r15: .cfa -24 + ^
STACK CFI INIT 6c1e0 70 .cfa: $rbp 16 + $rbp: .cfa -16 + ^ .ra: .cfa -8 + ^
STACK CFI INIT 6c250 90 .cfa: $rbp 16 + $rbp: .cfa -16 + ^ .ra: .cfa -8 + ^ $rbx: .cfa -40 + ^ $r14: .cfa -32 + ^ $r15: .cfa -24 + ^
STACK CFI INIT 6c2e0 30 .cfa: $rbp 16 + $rbp: .cfa -16 + ^ .ra: .cfa -8 + ^
STACK CFI INIT 6c310 70 .cfa: $rbp 16 + $rbp: .cfa -16 + ^ .ra: .cfa -8 + ^ $rbx: .cfa -24 + ^
STACK CFI INIT 6c380 40 .cfa: $rbp 16 + $rbp: .cfa -16 + ^ .ra: .cfa -8 + ^
STACK CFI INIT 6c3c0 60 .cfa: $rbp 16 + $rbp: .cfa -16 + ^ .ra: .cfa -8 + ^ $rbx: .cfa -24 + ^
STACK CFI INIT 6c420 b0 .cfa: $rbp 16 + $rbp: .cfa -16 + ^ .ra: .cfa -8 + ^
STACK CFI INIT 6c4d0 e0 .cfa: $rbp 16 + $rbp: .cfa -16 + ^ .ra: .cfa -8 + ^ $rbx: .cfa -48 + ^ $r12: .cfa -40 + ^ $r14: .cfa -32 + ^ $r15: .cfa -24 + ^
STACK CFI INIT 6c5b0 40 .cfa: $rbp 16 + $rbp: .cfa -16 + ^ .ra: .cfa -8 + ^
STACK CFI INIT 6c5f0 80 .cfa: $rbp 16 + $rbp: .cfa -16 + ^ .ra: .cfa -8 + ^ $rbx: .cfa -24 + ^
STACK CFI INIT 6c670 b0 .cfa: $rbp 16 + $rbp: .cfa -16 + ^ .ra: .cfa -8 + ^ $rbx: .cfa -56 + ^ $r12: .cfa -48 + ^ $r13: .cfa -40 + ^ $r14: .cfa -32 + ^ $r15: .cfa -24 + ^
STACK CFI INIT 6c720 80 .cfa: $rbp 16 + $rbp: .cfa -16 + ^ .ra: .cfa -8 + ^
STACK CFI INIT 6c7a0 90 .cfa: $rbp 16 + $rbp: .cfa -16 + ^ .ra: .cfa -8 + ^ $rbx: .cfa -40 + ^ $r14: .cfa -32 + ^ $r15: .cfa -24 + ^
STACK CFI INIT 6c830 120 .cfa: $rbp 16 + $rbp: .cfa -16 + ^ .ra: .cfa -8 + ^ $rbx: .cfa -40 + ^ $r14: .cfa -32 + ^ $r15: .cfa -24 + ^
STACK CFI INIT 6c950 a0 .cfa: $rbp 16 + $rbp: .cfa -16 + ^ .ra: .cfa -8 + ^ $rbx: .cfa -48 + ^ $r12: .cfa -40 + ^ $r14: .cfa -32 + ^ $r15: .cfa -24 + ^
STACK CFI INIT 6c9f0 60 .cfa: $rbp 16 + $rbp: .cfa -16 + ^ .ra: .cfa -8 + ^
STACK CFI INIT 6ca50 140 .cfa: $rbp 16 + $rbp: .cfa -16 + ^ .ra: .cfa -8 + ^ $rbx: .cfa -40 + ^ $r14: .cfa -32 + ^ $r15: .cfa -24 + ^
STACK CFI INIT 6cb90 30 .cfa: $rbp 16 + $rbp: .cfa -16 + ^ .ra: .cfa -8 + ^
STACK CFI INIT 6cbc0 160 .cfa: $rbp 16 + $rbp: .cfa -16 + ^ .ra: .cfa -8 + ^ $rbx: .cfa -56 + ^ $r12: .cfa -48 + ^ $r13: .cfa -40 + ^ $r14: .cfa -32 + ^ $r15: .cfa -24 + ^
STACK CFI INIT 6cd20 10 .cfa: $rbp 16 + $rbp: .cfa -16 + ^ .ra: .cfa -8 + ^
STACK CFI INIT 6cd30 70 .cfa: $rbp 16 + $rbp: .cfa -16 + ^ .ra: .cfa -8 + ^ $rbx: .cfa -24 + ^
STACK CFI INIT 6cda0 70 .cfa: $rbp 16 + $rbp: .cfa -16 + ^ .ra: .cfa -8 + ^
STACK CFI INIT 6ce10 90 .cfa: $rbp 16 + $rbp: .cfa -16 + ^ .ra: .cfa -8 + ^ $rbx: .cfa -40 + ^ $r14: .cfa -32 + ^ $r15: .cfa -24 + ^
STACK CFI INIT 6cea0 80 .cfa: $rbp 16 + $rbp: .cfa -16 + ^ .ra: .cfa -8 + ^
STACK CFI INIT 6cf20 40 .cfa: $rbp 16 + $rbp: .cfa -16 + ^ .ra: .cfa -8 + ^ $rbx: .cfa -24 + ^
STACK CFI INIT 6cf60 40 .cfa: $rbp 16 + $rbp: .cfa -16 + ^ .ra: .cfa -8 + ^
STACK CFI INIT 6cfa0 100 .cfa: $rbp 16 + $rbp: .cfa -16 + ^ .ra: .cfa -8 + ^ $rbx: .cfa -48 + ^ $r12: .cfa -40 + ^ $r14: .cfa -32 + ^ $r15: .cfa -24 + ^
STACK CFI INIT 6d0a0 60 .cfa: $rbp 16 + $rbp: .cfa -16 + ^ .ra: .cfa -8 + ^
STACK CFI INIT 6d100 b0 .cfa: $rbp 16 + $rbp: .cfa -16 + ^ .ra: .cfa -8 + ^ $rbx: .cfa -48 + ^ $r12: .cfa -40 + ^ $r14: .cfa -32 + ^ $r15: .cfa -24 + ^
STACK CFI INIT 6d1b0 60 .cfa: $rbp 16 + $rbp: .cfa -16 + ^ .ra: .cfa -8 + ^
STACK CFI INIT 6d210 30 .cfa: $rbp 16 + $rbp: .cfa -16 + ^ .ra: .cfa -8 + ^ $rbx: .cfa -24 + ^
STACK CFI INIT 6d240 60 .cfa: $rbp 16 + $rbp: .cfa -16 + ^ .ra: .cfa -8 + ^ $rbx: .cfa -32 + ^ $r14: .cfa -24 + ^
STACK CFI INIT 6d2a0 50 .cfa: $rbp 16 + $rbp: .cfa -16 + ^ .ra: .cfa -8 + ^
STACK CFI INIT 6d2f0 60 .cfa: $rbp 16 + $rbp: .cfa -16 + ^ .ra: .cfa -8 + ^ $rbx: .cfa -24 + ^
STACK CFI INIT 6d350 70 .cfa: $rbp 16 + $rbp: .cfa -16 + ^ .ra: .cfa -8 + ^ $rbx: .cfa -32 + ^ $r14: .cfa -24 + ^
STACK CFI INIT 6d3c0 740 .cfa: $rbp 16 + $rbp: .cfa -16 + ^ .ra: .cfa -8 + ^ $rbx: .cfa -56 + ^ $r12: .cfa -48 + ^ $r13: .cfa -40 + ^ $r14: .cfa -32 + ^ $r15: .cfa -24 + ^
STACK CFI INIT 6db00 1370 .cfa: $rbp 16 + $rbp: .cfa -16 + ^ .ra: .cfa -8 + ^ $rbx: .cfa -56 + ^ $r12: .cfa -48 + ^ $r13: .cfa -40 + ^ $r14: .cfa -32 + ^ $r15: .cfa -24 + ^
STACK CFI INIT 6ee70 fe0 .cfa: $rbp 16 + $rbp: .cfa -16 + ^ .ra: .cfa -8 + ^ $rbx: .cfa -56 + ^ $r12: .cfa -48 + ^ $r13: .cfa -40 + ^ $r14: .cfa -32 + ^ $r15: .cfa -24 + ^
STACK CFI INIT 6fe50 1060 .cfa: $rbp 16 + $rbp: .cfa -16 + ^ .ra: .cfa -8 + ^ $rbx: .cfa -56 + ^ $r12: .cfa -48 + ^ $r13: .cfa -40 + ^ $r14: .cfa -32 + ^ $r15: .cfa -24 + ^
STACK CFI INIT 70eb0 180 .cfa: $rbp 16 + $rbp: .cfa -16 + ^ .ra: .cfa -8 + ^ $rbx: .cfa -56 + ^ $r12: .cfa -48 + ^ $r13: .cfa -40 + ^ $r14: .cfa -32 + ^ $r15: .cfa -24 + ^
STACK CFI INIT 71030 2a0 .cfa: $rbp 16 + $rbp: .cfa -16 + ^ .ra: .cfa -8 + ^
STACK CFI INIT 712d0 50 .cfa: $rbp 16 + $rbp: .cfa -16 + ^ .ra: .cfa -8 + ^ $rbx: .cfa -40 + ^ $r14: .cfa -32 + ^ $r15: .cfa -24 + ^
STACK CFI INIT 71320 d0 .cfa: $rbp 16 + $rbp: .cfa -16 + ^ .ra: .cfa -8 + ^ $rbx: .cfa -48 + ^ $r12: .cfa -40 + ^ $r14: .cfa -32 + ^ $r15: .cfa -24 + ^
STACK CFI INIT 713f0 50 .cfa: $rbp 16 + $rbp: .cfa -16 + ^ .ra: .cfa -8 + ^ $rbx: .cfa -40 + ^ $r14: .cfa -32 + ^ $r15: .cfa -24 + ^
STACK CFI INIT 71440 50 .cfa: $rbp 16 + $rbp: .cfa -16 + ^ .ra: .cfa -8 + ^ $rbx: .cfa -40 + ^ $r14: .cfa -32 + ^ $r15: .cfa -24 + ^
STACK CFI INIT 71490 20 .cfa: $rbp 16 + $rbp: .cfa -16 + ^ .ra: .cfa -8 + ^
STACK CFI INIT 714b0 110 .cfa: $rbp 16 + $rbp: .cfa -16 + ^ .ra: .cfa -8 + ^ $rbx: .cfa -40 + ^ $r14: .cfa -32 + ^ $r15: .cfa -24 + ^
STACK CFI INIT 715c0 3a0 .cfa: $rbp 16 + $rbp: .cfa -16 + ^ .ra: .cfa -8 + ^ $rbx: .cfa -56 + ^ $r12: .cfa -48 + ^ $r13: .cfa -40 + ^ $r14: .cfa -32 + ^ $r15: .cfa -24 + ^
STACK CFI INIT 71960 60 .cfa: $rbp 16 + $rbp: .cfa -16 + ^ .ra: .cfa -8 + ^ $rbx: .cfa -24 + ^
STACK CFI INIT 719c0 30 .cfa: $rbp 16 + $rbp: .cfa -16 + ^ .ra: .cfa -8 + ^
STACK CFI INIT 719f0 70 .cfa: $rbp 16 + $rbp: .cfa -16 + ^ .ra: .cfa -8 + ^ $rbx: .cfa -32 + ^ $r14: .cfa -24 + ^
STACK CFI INIT 71a60 d0 .cfa: $rbp 16 + $rbp: .cfa -16 + ^ .ra: .cfa -8 + ^ $rbx: .cfa -24 + ^
STACK CFI INIT 71b30 a0 .cfa: $rbp 16 + $rbp: .cfa -16 + ^ .ra: .cfa -8 + ^
STACK CFI INIT 71bd0 2d0 .cfa: $rbp 16 + $rbp: .cfa -16 + ^ .ra: .cfa -8 + ^ $rbx: .cfa -40 + ^ $r14: .cfa -32 + ^ $r15: .cfa -24 + ^
STACK CFI INIT 71ea0 150 .cfa: $rbp 16 + $rbp: .cfa -16 + ^ .ra: .cfa -8 + ^ $rbx: .cfa -32 + ^ $r14: .cfa -24 + ^
STACK CFI INIT 71ff0 480 .cfa: $rbp 16 + $rbp: .cfa -16 + ^ .ra: .cfa -8 + ^ $rbx: .cfa -40 + ^ $r14: .cfa -32 + ^ $r15: .cfa -24 + ^
STACK CFI INIT 72470 370 .cfa: $rbp 16 + $rbp: .cfa -16 + ^ .ra: .cfa -8 + ^ $rbx: .cfa -56 + ^ $r12: .cfa -48 + ^ $r13: .cfa -40 + ^ $r14: .cfa -32 + ^ $r15: .cfa -24 + ^
STACK CFI INIT 727e0 9c0 .cfa: $rbp 16 + $rbp: .cfa -16 + ^ .ra: .cfa -8 + ^ $rbx: .cfa -32 + ^ $r14: .cfa -24 + ^
STACK CFI INIT 731a0 1390 .cfa: $rbp 16 + $rbp: .cfa -16 + ^ .ra: .cfa -8 + ^ $rbx: .cfa -56 + ^ $r12: .cfa -48 + ^ $r13: .cfa -40 + ^ $r14: .cfa -32 + ^ $r15: .cfa -24 + ^
STACK CFI INIT 74530 80 .cfa: $rbp 16 + $rbp: .cfa -16 + ^ .ra: .cfa -8 + ^
STACK CFI INIT 745b0 6b0 .cfa: $rbp 16 + $rbp: .cfa -16 + ^ .ra: .cfa -8 + ^ $rbx: .cfa -32 + ^ $r14: .cfa -24 + ^
STACK CFI INIT 74c60 4f0 .cfa: $rbp 16 + $rbp: .cfa -16 + ^ .ra: .cfa -8 + ^
STACK CFI INIT 75150 100 .cfa: $rbp 16 + $rbp: .cfa -16 + ^ .ra: .cfa -8 + ^ $rbx: .cfa -24 + ^
STACK CFI INIT 75250 11e0 .cfa: $rbp 16 + $rbp: .cfa -16 + ^ .ra: .cfa -8 + ^ $rbx: .cfa -56 + ^ $r12: .cfa -48 + ^ $r13: .cfa -40 + ^ $r14: .cfa -32 + ^ $r15: .cfa -24 + ^
STACK CFI INIT 76430 20 .cfa: $rbp 16 + $rbp: .cfa -16 + ^ .ra: .cfa -8 + ^
STACK CFI INIT 76450 360 .cfa: $rbp 16 + $rbp: .cfa -16 + ^ .ra: .cfa -8 + ^ $rbx: .cfa -56 + ^ $r12: .cfa -48 + ^ $r13: .cfa -40 + ^ $r14: .cfa -32 + ^ $r15: .cfa -24 + ^
STACK CFI INIT 767b0 80 .cfa: $rbp 16 + $rbp: .cfa -16 + ^ .ra: .cfa -8 + ^ $rbx: .cfa -32 + ^ $r14: .cfa -24 + ^
STACK CFI INIT 76830 410 .cfa: $rbp 16 + $rbp: .cfa -16 + ^ .ra: .cfa -8 + ^
STACK CFI INIT 76c40 2f10 .cfa: $rbp 16 + $rbp: .cfa -16 + ^ .ra: .cfa -8 + ^ $rbx: .cfa -56 + ^ $r12: .cfa -48 + ^ $r13: .cfa -40 + ^ $r14: .cfa -32 + ^ $r15: .cfa -24 + ^
STACK CFI INIT 79b50 27f0 .cfa: $rbp 16 + $rbp: .cfa -16 + ^ .ra: .cfa -8 + ^ $rbx: .cfa -56 + ^ $r12: .cfa -48 + ^ $r13: .cfa -40 + ^ $r14: .cfa -32 + ^ $r15: .cfa -24 + ^
STACK CFI INIT 7c340 400 .cfa: $rbp 16 + $rbp: .cfa -16 + ^ .ra: .cfa -8 + ^ $rbx: .cfa -56 + ^ $r12: .cfa -48 + ^ $r13: .cfa -40 + ^ $r14: .cfa -32 + ^ $r15: .cfa -24 + ^
STACK CFI INIT 7c740 4ec0 .cfa: $rbp 16 + $rbp: .cfa -16 + ^ .ra: .cfa -8 + ^ $rbx: .cfa -56 + ^ $r12: .cfa -48 + ^ $r13: .cfa -40 + ^ $r14: .cfa -32 + ^ $r15: .cfa -24 + ^
STACK CFI INIT 81600 1860 .cfa: $rbp 16 + $rbp: .cfa -16 + ^ .ra: .cfa -8 + ^ $rbx: .cfa -56 + ^ $r12: .cfa -48 + ^ $r13: .cfa -40 + ^ $r14: .cfa -32 + ^ $r15: .cfa -24 + ^
STACK CFI INIT 82e60 170 .cfa: $rbp 16 + $rbp: .cfa -16 + ^ .ra: .cfa -8 + ^ $rbx: .cfa -24 + ^
STACK CFI INIT 82fd0 50 .cfa: $rbp 16 + $rbp: .cfa -16 + ^ .ra: .cfa -8 + ^
STACK CFI INIT 83020 9c0 .cfa: $rbp 16 + $rbp: .cfa -16 + ^ .ra: .cfa -8 + ^ $rbx: .cfa -56 + ^ $r12: .cfa -48 + ^ $r13: .cfa -40 + ^ $r14: .cfa -32 + ^ $r15: .cfa -24 + ^
STACK CFI INIT 839e0 140 .cfa: $rbp 16 + $rbp: .cfa -16 + ^ .ra: .cfa -8 + ^
STACK CFI INIT 83b20 30 .cfa: $rbp 16 + $rbp: .cfa -16 + ^ .ra: .cfa -8 + ^ $rbx: .cfa -24 + ^
STACK CFI INIT 83b50 1a0 .cfa: $rbp 16 + $rbp: .cfa -16 + ^ .ra: .cfa -8 + ^ $rbx: .cfa -32 + ^ $r14: .cfa -24 + ^
STACK CFI INIT 83cf0 30 .cfa: $rbp 16 + $rbp: .cfa -16 + ^ .ra: .cfa -8 + ^
STACK CFI INIT 83d20 b0 .cfa: $rbp 16 + $rbp: .cfa -16 + ^ .ra: .cfa -8 + ^ $rbx: .cfa -32 + ^ $r14: .cfa -24 + ^
STACK CFI INIT 83dd0 60 .cfa: $rbp 16 + $rbp: .cfa -16 + ^ .ra: .cfa -8 + ^
STACK CFI INIT 83e30 c0 .cfa: $rbp 16 + $rbp: .cfa -16 + ^ .ra: .cfa -8 + ^ $rbx: .cfa -40 + ^ $r14: .cfa -32 + ^ $r15: .cfa -24 + ^
STACK CFI INIT 83ef0 190 .cfa: $rbp 16 + $rbp: .cfa -16 + ^ .ra: .cfa -8 + ^ $rbx: .cfa -48 + ^ $r12: .cfa -40 + ^ $r14: .cfa -32 + ^ $r15: .cfa -24 + ^
STACK CFI INIT 84080 200 .cfa: $rbp 16 + $rbp: .cfa -16 + ^ .ra: .cfa -8 + ^ $rbx: .cfa -40 + ^ $r14: .cfa -32 + ^ $r15: .cfa -24 + ^
STACK CFI INIT 84280 20 .cfa: $rbp 16 + $rbp: .cfa -16 + ^ .ra: .cfa -8 + ^
STACK CFI INIT 842a0 130 .cfa: $rbp 16 + $rbp: .cfa -16 + ^ .ra: .cfa -8 + ^ $rbx: .cfa -32 + ^ $r14: .cfa -24 + ^
STACK CFI INIT 843d0 120 .cfa: $rbp 16 + $rbp: .cfa -16 + ^ .ra: .cfa -8 + ^ $rbx: .cfa -24 + ^
STACK CFI INIT 844f0 160 .cfa: $rbp 16 + $rbp: .cfa -16 + ^ .ra: .cfa -8 + ^ $rbx: .cfa -56 + ^ $r12: .cfa -48 + ^ $r13: .cfa -40 + ^ $r14: .cfa -32 + ^ $r15: .cfa -24 + ^
STACK CFI INIT 84650 10 .cfa: $rbp 16 + $rbp: .cfa -16 + ^ .ra: .cfa -8 + ^
STACK CFI INIT 84660 510 .cfa: $rbp 16 + $rbp: .cfa -16 + ^ .ra: .cfa -8 + ^ $rbx: .cfa -56 + ^ $r12: .cfa -48 + ^ $r13: .cfa -40 + ^ $r14: .cfa -32 + ^ $r15: .cfa -24 + ^
STACK CFI INIT 84b70 50 .cfa: $rbp 16 + $rbp: .cfa -16 + ^ .ra: .cfa -8 + ^
STACK CFI INIT 84bc0 200 .cfa: $rbp 16 + $rbp: .cfa -16 + ^ .ra: .cfa -8 + ^ $rbx: .cfa -56 + ^ $r12: .cfa -48 + ^ $r13: .cfa -40 + ^ $r14: .cfa -32 + ^ $r15: .cfa -24 + ^
STACK CFI INIT 84dc0 1d0 .cfa: $rbp 16 + $rbp: .cfa -16 + ^ .ra: .cfa -8 + ^ $rbx: .cfa -56 + ^ $r12: .cfa -48 + ^ $r13: .cfa -40 + ^ $r14: .cfa -32 + ^ $r15: .cfa -24 + ^
STACK CFI INIT 84f90 110 .cfa: $rbp 16 + $rbp: .cfa -16 + ^ .ra: .cfa -8 + ^ $rbx: .cfa -32 + ^ $r14: .cfa -24 + ^
STACK CFI INIT 850a0 160 .cfa: $rbp 16 + $rbp: .cfa -16 + ^ .ra: .cfa -8 + ^ $rbx: .cfa -56 + ^ $r12: .cfa -48 + ^ $r13: .cfa -40 + ^ $r14: .cfa -32 + ^ $r15: .cfa -24 + ^
STACK CFI INIT 85200 190 .cfa: $rbp 16 + $rbp: .cfa -16 + ^ .ra: .cfa -8 + ^ $rbx: .cfa -56 + ^ $r12: .cfa -48 + ^ $r13: .cfa -40 + ^ $r14: .cfa -32 + ^ $r15: .cfa -24 + ^
STACK CFI INIT 85390 f0 .cfa: $rbp 16 + $rbp: .cfa -16 + ^ .ra: .cfa -8 + ^
STACK CFI INIT 85480 e0 .cfa: $rbp 16 + $rbp: .cfa -16 + ^ .ra: .cfa -8 + ^ $rbx: .cfa -48 + ^ $r12: .cfa -40 + ^ $r14: .cfa -32 + ^ $r15: .cfa -24 + ^
STACK CFI INIT 85560 130 .cfa: $rbp 16 + $rbp: .cfa -16 + ^ .ra: .cfa -8 + ^ $rbx: .cfa -56 + ^ $r12: .cfa -48 + ^ $r13: .cfa -40 + ^ $r14: .cfa -32 + ^ $r15: .cfa -24 + ^
STACK CFI INIT 85690 3f0 .cfa: $rbp 16 + $rbp: .cfa -16 + ^ .ra: .cfa -8 + ^ $rbx: .cfa -56 + ^ $r12: .cfa -48 + ^ $r13: .cfa -40 + ^ $r14: .cfa -32 + ^ $r15: .cfa -24 + ^
STACK CFI INIT 85a80 70 .cfa: $rbp 16 + $rbp: .cfa -16 + ^ .ra: .cfa -8 + ^
STACK CFI INIT 85af0 60 .cfa: $rbp 16 + $rbp: .cfa -16 + ^ .ra: .cfa -8 + ^ $rbx: .cfa -32 + ^ $r14: .cfa -24 + ^
STACK CFI INIT 85b50 10 .cfa: $rbp 16 + $rbp: .cfa -16 + ^ .ra: .cfa -8 + ^
STACK CFI INIT 85b60 80 .cfa: $rbp 16 + $rbp: .cfa -16 + ^ .ra: .cfa -8 + ^ $rbx: .cfa -24 + ^
STACK CFI INIT 85be0 3a0 .cfa: $rbp 16 + $rbp: .cfa -16 + ^ .ra: .cfa -8 + ^ $rbx: .cfa -40 + ^ $r14: .cfa -32 + ^ $r15: .cfa -24 + ^
STACK CFI INIT 85f80 4b0 .cfa: $rbp 16 + $rbp: .cfa -16 + ^ .ra: .cfa -8 + ^ $rbx: .cfa -32 + ^ $r14: .cfa -24 + ^
STACK CFI INIT 86430 230 .cfa: $rbp 16 + $rbp: .cfa -16 + ^ .ra: .cfa -8 + ^ $rbx: .cfa -56 + ^ $r12: .cfa -48 + ^ $r13: .cfa -40 + ^ $r14: .cfa -32 + ^ $r15: .cfa -24 + ^
STACK CFI INIT 86660 10 .cfa: $rbp 16 + $rbp: .cfa -16 + ^ .ra: .cfa -8 + ^
STACK CFI INIT 86670 60 .cfa: $rbp 16 + $rbp: .cfa -16 + ^ .ra: .cfa -8 + ^ $rbx: .cfa -48 + ^ $r12: .cfa -40 + ^ $r14: .cfa -32 + ^ $r15: .cfa -24 + ^
STACK CFI INIT 866d0 40 .cfa: $rbp 16 + $rbp: .cfa -16 + ^ .ra: .cfa -8 + ^
STACK CFI INIT 86710 50 .cfa: $rbp 16 + $rbp: .cfa -16 + ^ .ra: .cfa -8 + ^ $rbx: .cfa -24 + ^
STACK CFI INIT 86760 e0 .cfa: $rbp 16 + $rbp: .cfa -16 + ^ .ra: .cfa -8 + ^ $rbx: .cfa -40 + ^ $r14: .cfa -32 + ^ $r15: .cfa -24 + ^
STACK CFI INIT 86840 80 .cfa: $rbp 16 + $rbp: .cfa -16 + ^ .ra: .cfa -8 + ^
STACK CFI INIT 868c0 90 .cfa: $rbp 16 + $rbp: .cfa -16 + ^ .ra: .cfa -8 + ^ $rbx: .cfa -24 + ^
STACK CFI INIT 86950 c0 .cfa: $rbp 16 + $rbp: .cfa -16 + ^ .ra: .cfa -8 + ^ $rbx: .cfa -48 + ^ $r12: .cfa -40 + ^ $r14: .cfa -32 + ^ $r15: .cfa -24 + ^
STACK CFI INIT 86a10 150 .cfa: $rbp 16 + $rbp: .cfa -16 + ^ .ra: .cfa -8 + ^ $rbx: .cfa -32 + ^ $r14: .cfa -24 + ^
STACK CFI INIT 86b60 330 .cfa: $rbp 16 + $rbp: .cfa -16 + ^ .ra: .cfa -8 + ^ $rbx: .cfa -56 + ^ $r12: .cfa -48 + ^ $r13: .cfa -40 + ^ $r14: .cfa -32 + ^ $r15: .cfa -24 + ^
STACK CFI INIT 86e90 70 .cfa: $rbp 16 + $rbp: .cfa -16 + ^ .ra: .cfa -8 + ^ $rbx: .cfa -32 + ^ $r14: .cfa -24 + ^
STACK CFI INIT 86f00 230 .cfa: $rbp 16 + $rbp: .cfa -16 + ^ .ra: .cfa -8 + ^ $rbx: .cfa -56 + ^ $r12: .cfa -48 + ^ $r13: .cfa -40 + ^ $r14: .cfa -32 + ^ $r15: .cfa -24 + ^
STACK CFI INIT 87130 80 .cfa: $rbp 16 + $rbp: .cfa -16 + ^ .ra: .cfa -8 + ^
STACK CFI INIT 871b0 90 .cfa: $rbp 16 + $rbp: .cfa -16 + ^ .ra: .cfa -8 + ^ $rbx: .cfa -24 + ^
STACK CFI INIT 87240 50 .cfa: $rbp 16 + $rbp: .cfa -16 + ^ .ra: .cfa -8 + ^
STACK CFI INIT 87290 c0 .cfa: $rbp 16 + $rbp: .cfa -16 + ^ .ra: .cfa -8 + ^ $rbx: .cfa -48 + ^ $r12: .cfa -40 + ^ $r14: .cfa -32 + ^ $r15: .cfa -24 + ^
STACK CFI INIT 87350 150 .cfa: $rbp 16 + $rbp: .cfa -16 + ^ .ra: .cfa -8 + ^ $rbx: .cfa -32 + ^ $r14: .cfa -24 + ^
STACK CFI INIT 874a0 f0 .cfa: $rbp 16 + $rbp: .cfa -16 + ^ .ra: .cfa -8 + ^ $rbx: .cfa -40 + ^ $r14: .cfa -32 + ^ $r15: .cfa -24 + ^
STACK CFI INIT 87590 50 .cfa: $rbp 16 + $rbp: .cfa -16 + ^ .ra: .cfa -8 + ^
STACK CFI INIT 875e0 a0 .cfa: $rbp 16 + $rbp: .cfa -16 + ^ .ra: .cfa -8 + ^ $rbx: .cfa -32 + ^ $r14: .cfa -24 + ^
STACK CFI INIT 87680 b0 .cfa: $rbp 16 + $rbp: .cfa -16 + ^ .ra: .cfa -8 + ^ $rbx: .cfa -24 + ^
STACK CFI INIT 87730 3c0 .cfa: $rbp 16 + $rbp: .cfa -16 + ^ .ra: .cfa -8 + ^ $rbx: .cfa -48 + ^ $r12: .cfa -40 + ^ $r14: .cfa -32 + ^ $r15: .cfa -24 + ^
STACK CFI INIT 87af0 3c0 .cfa: $rbp 16 + $rbp: .cfa -16 + ^ .ra: .cfa -8 + ^ $rbx: .cfa -48 + ^ $r12: .cfa -40 + ^ $r14: .cfa -32 + ^ $r15: .cfa -24 + ^
STACK CFI INIT 87eb0 1c0 .cfa: $rbp 16 + $rbp: .cfa -16 + ^ .ra: .cfa -8 + ^ $rbx: .cfa -48 + ^ $r12: .cfa -40 + ^ $r14: .cfa -32 + ^ $r15: .cfa -24 + ^
STACK CFI INIT 88070 520 .cfa: $rbp 16 + $rbp: .cfa -16 + ^ .ra: .cfa -8 + ^ $rbx: .cfa -56 + ^ $r12: .cfa -48 + ^ $r13: .cfa -40 + ^ $r14: .cfa -32 + ^ $r15: .cfa -24 + ^
STACK CFI INIT 88590 b0 .cfa: $rbp 16 + $rbp: .cfa -16 + ^ .ra: .cfa -8 + ^ $rbx: .cfa -24 + ^
STACK CFI INIT 88640 b0 .cfa: $rbp 16 + $rbp: .cfa -16 + ^ .ra: .cfa -8 + ^ $rbx: .cfa -24 + ^
STACK CFI INIT 886f0 50 .cfa: $rbp 16 + $rbp: .cfa -16 + ^ .ra: .cfa -8 + ^ $rbx: .cfa -40 + ^ $r14: .cfa -32 + ^ $r15: .cfa -24 + ^
STACK CFI INIT 88740 50 .cfa: $rbp 16 + $rbp: .cfa -16 + ^ .ra: .cfa -8 + ^ $rbx: .cfa -40 + ^ $r14: .cfa -32 + ^ $r15: .cfa -24 + ^
STACK CFI INIT 88790 50 .cfa: $rbp 16 + $rbp: .cfa -16 + ^ .ra: .cfa -8 + ^ $rbx: .cfa -40 + ^ $r14: .cfa -32 + ^ $r15: .cfa -24 + ^
STACK CFI INIT 887e0 60 .cfa: $rbp 16 + $rbp: .cfa -16 + ^ .ra: .cfa -8 + ^ $rbx: .cfa -48 + ^ $r12: .cfa -40 + ^ $r14: .cfa -32 + ^ $r15: .cfa -24 + ^
STACK CFI INIT 88840 3d0 .cfa: $rbp 16 + $rbp: .cfa -16 + ^ .ra: .cfa -8 + ^ $rbx: .cfa -56 + ^ $r12: .cfa -48 + ^ $r13: .cfa -40 + ^ $r14: .cfa -32 + ^ $r15: .cfa -24 + ^
STACK CFI INIT 88c10 e0 .cfa: $rbp 16 + $rbp: .cfa -16 + ^ .ra: .cfa -8 + ^ $rbx: .cfa -24 + ^
STACK CFI INIT 88cf0 410 .cfa: $rbp 16 + $rbp: .cfa -16 + ^ .ra: .cfa -8 + ^ $rbx: .cfa -56 + ^ $r12: .cfa -48 + ^ $r13: .cfa -40 + ^ $r14: .cfa -32 + ^ $r15: .cfa -24 + ^
STACK CFI INIT 89100 100 .cfa: $rbp 16 + $rbp: .cfa -16 + ^ .ra: .cfa -8 + ^
STACK CFI INIT 89200 1d0 .cfa: $rbp 16 + $rbp: .cfa -16 + ^ .ra: .cfa -8 + ^ $rbx: .cfa -48 + ^ $r12: .cfa -40 + ^ $r14: .cfa -32 + ^ $r15: .cfa -24 + ^
STACK CFI INIT 893d0 b10 .cfa: $rbp 16 + $rbp: .cfa -16 + ^ .ra: .cfa -8 + ^ $rbx: .cfa -56 + ^ $r12: .cfa -48 + ^ $r13: .cfa -40 + ^ $r14: .cfa -32 + ^ $r15: .cfa -24 + ^
STACK CFI INIT 89ee0 80 .cfa: $rbp 16 + $rbp: .cfa -16 + ^ .ra: .cfa -8 + ^
STACK CFI INIT 89f60 2d0 .cfa: $rbp 16 + $rbp: .cfa -16 + ^ .ra: .cfa -8 + ^ $rbx: .cfa -56 + ^ $r12: .cfa -48 + ^ $r13: .cfa -40 + ^ $r14: .cfa -32 + ^ $r15: .cfa -24 + ^
STACK CFI INIT 8a230 f0 .cfa: $rbp 16 + $rbp: .cfa -16 + ^ .ra: .cfa -8 + ^
STACK CFI INIT 8a320 140 .cfa: $rbp 16 + $rbp: .cfa -16 + ^ .ra: .cfa -8 + ^ $rbx: .cfa -56 + ^ $r12: .cfa -48 + ^ $r13: .cfa -40 + ^ $r14: .cfa -32 + ^ $r15: .cfa -24 + ^
STACK CFI INIT 8a460 20 .cfa: $rbp 16 + $rbp: .cfa -16 + ^ .ra: .cfa -8 + ^ $rbx: .cfa -24 + ^
STACK CFI INIT 8a480 50 .cfa: $rbp 16 + $rbp: .cfa -16 + ^ .ra: .cfa -8 + ^
STACK CFI INIT 8a4d0 d0 .cfa: $rbp 16 + $rbp: .cfa -16 + ^ .ra: .cfa -8 + ^ $rbx: .cfa -48 + ^ $r12: .cfa -40 + ^ $r14: .cfa -32 + ^ $r15: .cfa -24 + ^
STACK CFI INIT 8a5a0 270 .cfa: $rbp 16 + $rbp: .cfa -16 + ^ .ra: .cfa -8 + ^ $rbx: .cfa -24 + ^
STACK CFI INIT 8a810 180 .cfa: $rbp 16 + $rbp: .cfa -16 + ^ .ra: .cfa -8 + ^ $rbx: .cfa -24 + ^
STACK CFI INIT 8a990 d0 .cfa: $rbp 16 + $rbp: .cfa -16 + ^ .ra: .cfa -8 + ^
STACK CFI INIT 8aa60 150 .cfa: $rbp 16 + $rbp: .cfa -16 + ^ .ra: .cfa -8 + ^ $rbx: .cfa -40 + ^ $r14: .cfa -32 + ^ $r15: .cfa -24 + ^
STACK CFI INIT 8abb0 10 .cfa: $rbp 16 + $rbp: .cfa -16 + ^ .ra: .cfa -8 + ^
STACK CFI INIT 8abc0 e0 .cfa: $rbp 16 + $rbp: .cfa -16 + ^ .ra: .cfa -8 + ^ $rbx: .cfa -32 + ^ $r14: .cfa -24 + ^
STACK CFI INIT 8aca0 e0 .cfa: $rbp 16 + $rbp: .cfa -16 + ^ .ra: .cfa -8 + ^ $rbx: .cfa -24 + ^
STACK CFI INIT 8ad80 210 .cfa: $rbp 16 + $rbp: .cfa -16 + ^ .ra: .cfa -8 + ^ $rbx: .cfa -56 + ^ $r12: .cfa -48 + ^ $r13: .cfa -40 + ^ $r14: .cfa -32 + ^ $r15: .cfa -24 + ^
STACK CFI INIT 8af90 50 .cfa: $rbp 16 + $rbp: .cfa -16 + ^ .ra: .cfa -8 + ^
STACK CFI INIT 8afe0 130 .cfa: $rbp 16 + $rbp: .cfa -16 + ^ .ra: .cfa -8 + ^ $rbx: .cfa -56 + ^ $r12: .cfa -48 + ^ $r13: .cfa -40 + ^ $r14: .cfa -32 + ^ $r15: .cfa -24 + ^
STACK CFI INIT 8b110 240 .cfa: $rbp 16 + $rbp: .cfa -16 + ^ .ra: .cfa -8 + ^ $rbx: .cfa -56 + ^ $r12: .cfa -48 + ^ $r13: .cfa -40 + ^ $r14: .cfa -32 + ^ $r15: .cfa -24 + ^
STACK CFI INIT 8b350 20 .cfa: $rbp 16 + $rbp: .cfa -16 + ^ .ra: .cfa -8 + ^
STACK CFI INIT 8b370 180 .cfa: $rbp 16 + $rbp: .cfa -16 + ^ .ra: .cfa -8 + ^ $rbx: .cfa -40 + ^ $r14: .cfa -32 + ^ $r15: .cfa -24 + ^
STACK CFI INIT 8b4f0 10 .cfa: $rbp 16 + $rbp: .cfa -16 + ^ .ra: .cfa -8 + ^
STACK CFI INIT 8b500 80 .cfa: $rbp 16 + $rbp: .cfa -16 + ^ .ra: .cfa -8 + ^ $rbx: .cfa -24 + ^
STACK CFI INIT 8b580 20 .cfa: $rbp 16 + $rbp: .cfa -16 + ^ .ra: .cfa -8 + ^
STACK CFI INIT 8b5a0 120 .cfa: $rbp 16 + $rbp: .cfa -16 + ^ .ra: .cfa -8 + ^ $rbx: .cfa -24 + ^
STACK CFI INIT 8b6c0 f0 .cfa: $rbp 16 + $rbp: .cfa -16 + ^ .ra: .cfa -8 + ^ $rbx: .cfa -40 + ^ $r14: .cfa -32 + ^ $r15: .cfa -24 + ^
STACK CFI INIT 8b7b0 1d0 .cfa: $rbp 16 + $rbp: .cfa -16 + ^ .ra: .cfa -8 + ^ $rbx: .cfa -24 + ^
STACK CFI INIT 8b980 350 .cfa: $rbp 16 + $rbp: .cfa -16 + ^ .ra: .cfa -8 + ^ $rbx: .cfa -40 + ^ $r14: .cfa -32 + ^ $r15: .cfa -24 + ^
STACK CFI INIT 8bcd0 120 .cfa: $rbp 16 + $rbp: .cfa -16 + ^ .ra: .cfa -8 + ^ $rbx: .cfa -24 + ^
STACK CFI INIT 8bdf0 a0 .cfa: $rbp 16 + $rbp: .cfa -16 + ^ .ra: .cfa -8 + ^
STACK CFI INIT 8be90 b0 .cfa: $rbp 16 + $rbp: .cfa -16 + ^ .ra: .cfa -8 + ^ $rbx: .cfa -48 + ^ $r12: .cfa -40 + ^ $r14: .cfa -32 + ^ $r15: .cfa -24 + ^
STACK CFI INIT 8bf40 f0 .cfa: $rbp 16 + $rbp: .cfa -16 + ^ .ra: .cfa -8 + ^
STACK CFI INIT 8c030 f0 .cfa: $rbp 16 + $rbp: .cfa -16 + ^ .ra: .cfa -8 + ^
STACK CFI INIT 8c120 3d0 .cfa: $rbp 16 + $rbp: .cfa -16 + ^ .ra: .cfa -8 + ^ $rbx: .cfa -40 + ^ $r14: .cfa -32 + ^ $r15: .cfa -24 + ^
STACK CFI INIT 8c4f0 210 .cfa: $rbp 16 + $rbp: .cfa -16 + ^ .ra: .cfa -8 + ^ $rbx: .cfa -48 + ^ $r12: .cfa -40 + ^ $r14: .cfa -32 + ^ $r15: .cfa -24 + ^
STACK CFI INIT 8c700 50 .cfa: $rbp 16 + $rbp: .cfa -16 + ^ .ra: .cfa -8 + ^ $rbx: .cfa -32 + ^ $r14: .cfa -24 + ^
STACK CFI INIT 8c750 150 .cfa: $rbp 16 + $rbp: .cfa -16 + ^ .ra: .cfa -8 + ^ $rbx: .cfa -40 + ^ $r14: .cfa -32 + ^ $r15: .cfa -24 + ^
STACK CFI INIT 8c8a0 c0 .cfa: $rbp 16 + $rbp: .cfa -16 + ^ .ra: .cfa -8 + ^ $rbx: .cfa -24 + ^
STACK CFI INIT 8c960 50 .cfa: $rbp 16 + $rbp: .cfa -16 + ^ .ra: .cfa -8 + ^ $rbx: .cfa -32 + ^ $r14: .cfa -24 + ^
STACK CFI INIT 8c9b0 10 .cfa: $rbp 16 + $rbp: .cfa -16 + ^ .ra: .cfa -8 + ^
STACK CFI INIT 8c9c0 d0 .cfa: $rbp 16 + $rbp: .cfa -16 + ^ .ra: .cfa -8 + ^ $rbx: .cfa -40 + ^ $r14: .cfa -32 + ^ $r15: .cfa -24 + ^
STACK CFI INIT 8ca90 330 .cfa: $rbp 16 + $rbp: .cfa -16 + ^ .ra: .cfa -8 + ^ $rbx: .cfa -56 + ^ $r12: .cfa -48 + ^ $r13: .cfa -40 + ^ $r14: .cfa -32 + ^ $r15: .cfa -24 + ^
STACK CFI INIT 8cdc0 d0 .cfa: $rbp 16 + $rbp: .cfa -16 + ^ .ra: .cfa -8 + ^
STACK CFI INIT 8ce90 120 .cfa: $rbp 16 + $rbp: .cfa -16 + ^ .ra: .cfa -8 + ^ $rbx: .cfa -40 + ^ $r14: .cfa -32 + ^ $r15: .cfa -24 + ^
STACK CFI INIT 8cfb0 700 .cfa: $rbp 16 + $rbp: .cfa -16 + ^ .ra: .cfa -8 + ^ $rbx: .cfa -56 + ^ $r12: .cfa -48 + ^ $r13: .cfa -40 + ^ $r14: .cfa -32 + ^ $r15: .cfa -24 + ^
STACK CFI INIT 8d6b0 350 .cfa: $rbp 16 + $rbp: .cfa -16 + ^ .ra: .cfa -8 + ^
STACK CFI INIT 8da00 d0 .cfa: $rbp 16 + $rbp: .cfa -16 + ^ .ra: .cfa -8 + ^ $rbx: .cfa -32 + ^ $r14: .cfa -24 + ^
STACK CFI INIT 8dad0 2f0 .cfa: $rbp 16 + $rbp: .cfa -16 + ^ .ra: .cfa -8 + ^ $rbx: .cfa -56 + ^ $r12: .cfa -48 + ^ $r13: .cfa -40 + ^ $r14: .cfa -32 + ^ $r15: .cfa -24 + ^
STACK CFI INIT 8ddc0 1f0 .cfa: $rbp 16 + $rbp: .cfa -16 + ^ .ra: .cfa -8 + ^ $rbx: .cfa -56 + ^ $r12: .cfa -48 + ^ $r13: .cfa -40 + ^ $r14: .cfa -32 + ^ $r15: .cfa -24 + ^
STACK CFI INIT 8dfb0 10 .cfa: $rbp 16 + $rbp: .cfa -16 + ^ .ra: .cfa -8 + ^
STACK CFI INIT 8dfc0 160 .cfa: $rbp 16 + $rbp: .cfa -16 + ^ .ra: .cfa -8 + ^ $rbx: .cfa -48 + ^ $r12: .cfa -40 + ^ $r14: .cfa -32 + ^ $r15: .cfa -24 + ^
STACK CFI INIT 8e120 30 .cfa: $rbp 16 + $rbp: .cfa -16 + ^ .ra: .cfa -8 + ^
STACK CFI INIT 8e150 f0 .cfa: $rbp 16 + $rbp: .cfa -16 + ^ .ra: .cfa -8 + ^ $rbx: .cfa -32 + ^ $r14: .cfa -24 + ^
STACK CFI INIT 8e240 40 .cfa: $rbp 16 + $rbp: .cfa -16 + ^ .ra: .cfa -8 + ^
STACK CFI INIT 8e280 20 .cfa: $rbp 16 + $rbp: .cfa -16 + ^ .ra: .cfa -8 + ^ $rbx: .cfa -24 + ^
STACK CFI INIT 8e2a0 70 .cfa: $rbp 16 + $rbp: .cfa -16 + ^ .ra: .cfa -8 + ^ $rbx: .cfa -48 + ^ $r12: .cfa -40 + ^ $r14: .cfa -32 + ^ $r15: .cfa -24 + ^
STACK CFI INIT 8e310 250 .cfa: $rbp 16 + $rbp: .cfa -16 + ^ .ra: .cfa -8 + ^ $rbx: .cfa -56 + ^ $r12: .cfa -48 + ^ $r13: .cfa -40 + ^ $r14: .cfa -32 + ^ $r15: .cfa -24 + ^
STACK CFI INIT 8e560 360 .cfa: $rbp 16 + $rbp: .cfa -16 + ^ .ra: .cfa -8 + ^ $rbx: .cfa -56 + ^ $r12: .cfa -48 + ^ $r13: .cfa -40 + ^ $r14: .cfa -32 + ^ $r15: .cfa -24 + ^
STACK CFI INIT 8e8c0 1c0 .cfa: $rbp 16 + $rbp: .cfa -16 + ^ .ra: .cfa -8 + ^ $rbx: .cfa -24 + ^
STACK CFI INIT 8ea80 c0 .cfa: $rbp 16 + $rbp: .cfa -16 + ^ .ra: .cfa -8 + ^ $rbx: .cfa -24 + ^
STACK CFI INIT 8eb40 20 .cfa: $rbp 16 + $rbp: .cfa -16 + ^ .ra: .cfa -8 + ^
STACK CFI INIT 8eb60 240 .cfa: $rbp 16 + $rbp: .cfa -16 + ^ .ra: .cfa -8 + ^ $rbx: .cfa -56 + ^ $r12: .cfa -48 + ^ $r13: .cfa -40 + ^ $r14: .cfa -32 + ^ $r15: .cfa -24 + ^
STACK CFI INIT 8eda0 d0 .cfa: $rbp 16 + $rbp: .cfa -16 + ^ .ra: .cfa -8 + ^ $rbx: .cfa -48 + ^ $r12: .cfa -40 + ^ $r14: .cfa -32 + ^ $r15: .cfa -24 + ^
STACK CFI INIT 8ee70 10 .cfa: $rbp 16 + $rbp: .cfa -16 + ^ .ra: .cfa -8 + ^
STACK CFI INIT 8ee80 90 .cfa: $rbp 16 + $rbp: .cfa -16 + ^ .ra: .cfa -8 + ^ $rbx: .cfa -24 + ^
STACK CFI INIT 8ef10 10 .cfa: $rbp 16 + $rbp: .cfa -16 + ^ .ra: .cfa -8 + ^
STACK CFI INIT 8ef20 140 .cfa: $rbp 16 + $rbp: .cfa -16 + ^ .ra: .cfa -8 + ^ $rbx: .cfa -40 + ^ $r14: .cfa -32 + ^ $r15: .cfa -24 + ^
STACK CFI INIT 8f060 e0 .cfa: $rbp 16 + $rbp: .cfa -16 + ^ .ra: .cfa -8 + ^ $rbx: .cfa -56 + ^ $r12: .cfa -48 + ^ $r13: .cfa -40 + ^ $r14: .cfa -32 + ^ $r15: .cfa -24 + ^
STACK CFI INIT 8f140 30 .cfa: $rbp 16 + $rbp: .cfa -16 + ^ .ra: .cfa -8 + ^ $rbx: .cfa -24 + ^
STACK CFI INIT 8f170 30 .cfa: $rbp 16 + $rbp: .cfa -16 + ^ .ra: .cfa -8 + ^
STACK CFI INIT 8f1a0 120 .cfa: $rbp 16 + $rbp: .cfa -16 + ^ .ra: .cfa -8 + ^ $rbx: .cfa -56 + ^ $r12: .cfa -48 + ^ $r13: .cfa -40 + ^ $r14: .cfa -32 + ^ $r15: .cfa -24 + ^
STACK CFI INIT 8f2c0 140 .cfa: $rbp 16 + $rbp: .cfa -16 + ^ .ra: .cfa -8 + ^ $rbx: .cfa -32 + ^ $r14: .cfa -24 + ^
STACK CFI INIT 8f400 c0 .cfa: $rbp 16 + $rbp: .cfa -16 + ^ .ra: .cfa -8 + ^ $rbx: .cfa -56 + ^ $r12: .cfa -48 + ^ $r13: .cfa -40 + ^ $r14: .cfa -32 + ^ $r15: .cfa -24 + ^
STACK CFI INIT 8f4c0 30 .cfa: $rbp 16 + $rbp: .cfa -16 + ^ .ra: .cfa -8 + ^
STACK CFI INIT 8f4f0 40 .cfa: $rbp 16 + $rbp: .cfa -16 + ^ .ra: .cfa -8 + ^
STACK CFI INIT 8f530 e0 .cfa: $rbp 16 + $rbp: .cfa -16 + ^ .ra: .cfa -8 + ^ $rbx: .cfa -56 + ^ $r12: .cfa -48 + ^ $r13: .cfa -40 + ^ $r14: .cfa -32 + ^ $r15: .cfa -24 + ^
STACK CFI INIT 8f610 dd0 .cfa: $rbp 16 + $rbp: .cfa -16 + ^ .ra: .cfa -8 + ^ $rbx: .cfa -56 + ^ $r12: .cfa -48 + ^ $r13: .cfa -40 + ^ $r14: .cfa -32 + ^ $r15: .cfa -24 + ^
STACK CFI INIT 903e0 150 .cfa: $rbp 16 + $rbp: .cfa -16 + ^ .ra: .cfa -8 + ^ $rbx: .cfa -48 + ^ $r12: .cfa -40 + ^ $r14: .cfa -32 + ^ $r15: .cfa -24 + ^
STACK CFI INIT 90530 2ad0 .cfa: $rbp 16 + $rbp: .cfa -16 + ^ .ra: .cfa -8 + ^ $rbx: .cfa -56 + ^ $r12: .cfa -48 + ^ $r13: .cfa -40 + ^ $r14: .cfa -32 + ^ $r15: .cfa -24 + ^
STACK CFI INIT 93000 1b0 .cfa: $rbp 16 + $rbp: .cfa -16 + ^ .ra: .cfa -8 + ^ $rbx: .cfa -40 + ^ $r14: .cfa -32 + ^ $r15: .cfa -24 + ^
STACK CFI INIT 931b0 ee0 .cfa: $rbp 16 + $rbp: .cfa -16 + ^ .ra: .cfa -8 + ^ $rbx: .cfa -56 + ^ $r12: .cfa -48 + ^ $r13: .cfa -40 + ^ $r14: .cfa -32 + ^ $r15: .cfa -24 + ^
STACK CFI INIT 94090 190 .cfa: $rbp 16 + $rbp: .cfa -16 + ^ .ra: .cfa -8 + ^ $rbx: .cfa -56 + ^ $r12: .cfa -48 + ^ $r13: .cfa -40 + ^ $r14: .cfa -32 + ^ $r15: .cfa -24 + ^
STACK CFI INIT 94220 20 .cfa: $rbp 16 + $rbp: .cfa -16 + ^ .ra: .cfa -8 + ^
STACK CFI INIT 94240 50 .cfa: $rbp 16 + $rbp: .cfa -16 + ^ .ra: .cfa -8 + ^ $rbx: .cfa -32 + ^ $r14: .cfa -24 + ^
STACK CFI INIT 94290 70 .cfa: $rbp 16 + $rbp: .cfa -16 + ^ .ra: .cfa -8 + ^ $rbx: .cfa -40 + ^ $r14: .cfa -32 + ^ $r15: .cfa -24 + ^
STACK CFI INIT 94300 50 .cfa: $rbp 16 + $rbp: .cfa -16 + ^ .ra: .cfa -8 + ^
STACK CFI INIT 94350 1d0 .cfa: $rbp 16 + $rbp: .cfa -16 + ^ .ra: .cfa -8 + ^ $rbx: .cfa -40 + ^ $r14: .cfa -32 + ^ $r15: .cfa -24 + ^
STACK CFI INIT 94520 50 .cfa: $rbp 16 + $rbp: .cfa -16 + ^ .ra: .cfa -8 + ^ $rbx: .cfa -32 + ^ $r14: .cfa -24 + ^
STACK CFI INIT 94570 d0 .cfa: $rbp 16 + $rbp: .cfa -16 + ^ .ra: .cfa -8 + ^ $rbx: .cfa -24 + ^
STACK CFI INIT 94640 20 .cfa: $rbp 16 + $rbp: .cfa -16 + ^ .ra: .cfa -8 + ^
STACK CFI INIT 94660 20 .cfa: $rbp 16 + $rbp: .cfa -16 + ^ .ra: .cfa -8 + ^
STACK CFI INIT 94680 2a0 .cfa: $rbp 16 + $rbp: .cfa -16 + ^ .ra: .cfa -8 + ^ $rbx: .cfa -56 + ^ $r12: .cfa -48 + ^ $r13: .cfa -40 + ^ $r14: .cfa -32 + ^ $r15: .cfa -24 + ^
STACK CFI INIT 94920 40 .cfa: $rbp 16 + $rbp: .cfa -16 + ^ .ra: .cfa -8 + ^
STACK CFI INIT 94960 50 .cfa: $rbp 16 + $rbp: .cfa -16 + ^ .ra: .cfa -8 + ^ $rbx: .cfa -32 + ^ $r14: .cfa -24 + ^
STACK CFI INIT 949b0 10 .cfa: $rbp 16 + $rbp: .cfa -16 + ^ .ra: .cfa -8 + ^
STACK CFI INIT 949c0 120 .cfa: $rbp 16 + $rbp: .cfa -16 + ^ .ra: .cfa -8 + ^ $rbx: .cfa -24 + ^
STACK CFI INIT 94ae0 c0 .cfa: $rbp 16 + $rbp: .cfa -16 + ^ .ra: .cfa -8 + ^ $rbx: .cfa -40 + ^ $r14: .cfa -32 + ^ $r15: .cfa -24 + ^
STACK CFI INIT 94ba0 430 .cfa: $rbp 16 + $rbp: .cfa -16 + ^ .ra: .cfa -8 + ^
STACK CFI INIT 94fd0 90 .cfa: $rbp 16 + $rbp: .cfa -16 + ^ .ra: .cfa -8 + ^ $rbx: .cfa -40 + ^ $r14: .cfa -32 + ^ $r15: .cfa -24 + ^
STACK CFI INIT 95060 a0 .cfa: $rbp 16 + $rbp: .cfa -16 + ^ .ra: .cfa -8 + ^ $rbx: .cfa -32 + ^ $r14: .cfa -24 + ^
STACK CFI INIT 95100 140 .cfa: $rbp 16 + $rbp: .cfa -16 + ^ .ra: .cfa -8 + ^ $rbx: .cfa -48 + ^ $r12: .cfa -40 + ^ $r14: .cfa -32 + ^ $r15: .cfa -24 + ^
STACK CFI INIT 95240 180 .cfa: $rbp 16 + $rbp: .cfa -16 + ^ .ra: .cfa -8 + ^ $rbx: .cfa -56 + ^ $r12: .cfa -48 + ^ $r13: .cfa -40 + ^ $r14: .cfa -32 + ^ $r15: .cfa -24 + ^
STACK CFI INIT 953c0 50 .cfa: $rbp 16 + $rbp: .cfa -16 + ^ .ra: .cfa -8 + ^ $rbx: .cfa -32 + ^ $r14: .cfa -24 + ^
STACK CFI INIT 95410 150 .cfa: $rbp 16 + $rbp: .cfa -16 + ^ .ra: .cfa -8 + ^
STACK CFI INIT 95560 210 .cfa: $rbp 16 + $rbp: .cfa -16 + ^ .ra: .cfa -8 + ^ $rbx: .cfa -40 + ^ $r14: .cfa -32 + ^ $r15: .cfa -24 + ^
STACK CFI INIT 95770 80 .cfa: $rbp 16 + $rbp: .cfa -16 + ^ .ra: .cfa -8 + ^
STACK CFI INIT 957f0 e50 .cfa: $rbp 16 + $rbp: .cfa -16 + ^ .ra: .cfa -8 + ^ $rbx: .cfa -56 + ^ $r12: .cfa -48 + ^ $r13: .cfa -40 + ^ $r14: .cfa -32 + ^ $r15: .cfa -24 + ^
STACK CFI INIT 96640 70 .cfa: $rbp 16 + $rbp: .cfa -16 + ^ .ra: .cfa -8 + ^ $rbx: .cfa -32 + ^ $r14: .cfa -24 + ^
STACK CFI INIT 966b0 70 .cfa: $rbp 16 + $rbp: .cfa -16 + ^ .ra: .cfa -8 + ^
STACK CFI INIT 96720 150 .cfa: $rbp 16 + $rbp: .cfa -16 + ^ .ra: .cfa -8 + ^ $rbx: .cfa -40 + ^ $r14: .cfa -32 + ^ $r15: .cfa -24 + ^
STACK CFI INIT 96870 2b0 .cfa: $rbp 16 + $rbp: .cfa -16 + ^ .ra: .cfa -8 + ^
STACK CFI INIT 96b20 530 .cfa: $rbp 16 + $rbp: .cfa -16 + ^ .ra: .cfa -8 + ^ $rbx: .cfa -32 + ^ $r14: .cfa -24 + ^
STACK CFI INIT 97050 c0 .cfa: $rbp 16 + $rbp: .cfa -16 + ^ .ra: .cfa -8 + ^
STACK CFI INIT 97110 80 .cfa: $rbp 16 + $rbp: .cfa -16 + ^ .ra: .cfa -8 + ^ $rbx: .cfa -56 + ^ $r12: .cfa -48 + ^ $r13: .cfa -40 + ^ $r14: .cfa -32 + ^ $r15: .cfa -24 + ^
STACK CFI INIT 97190 180 .cfa: $rbp 16 + $rbp: .cfa -16 + ^ .ra: .cfa -8 + ^
STACK CFI INIT 97310 3b0 .cfa: $rbp 16 + $rbp: .cfa -16 + ^ .ra: .cfa -8 + ^ $rbx: .cfa -56 + ^ $r12: .cfa -48 + ^ $r13: .cfa -40 + ^ $r14: .cfa -32 + ^ $r15: .cfa -24 + ^
STACK CFI INIT 976c0 20 .cfa: $rbp 16 + $rbp: .cfa -16 + ^ .ra: .cfa -8 + ^
STACK CFI INIT 976e0 1200 .cfa: $rbp 16 + $rbp: .cfa -16 + ^ .ra: .cfa -8 + ^ $rbx: .cfa -56 + ^ $r12: .cfa -48 + ^ $r13: .cfa -40 + ^ $r14: .cfa -32 + ^ $r15: .cfa -24 + ^
STACK CFI INIT 988e0 1a0 .cfa: $rbp 16 + $rbp: .cfa -16 + ^ .ra: .cfa -8 + ^ $rbx: .cfa -48 + ^ $r12: .cfa -40 + ^ $r14: .cfa -32 + ^ $r15: .cfa -24 + ^
STACK CFI INIT 98a80 c0 .cfa: $rbp 16 + $rbp: .cfa -16 + ^ .ra: .cfa -8 + ^
STACK CFI INIT 98b40 1b0 .cfa: $rbp 16 + $rbp: .cfa -16 + ^ .ra: .cfa -8 + ^ $rbx: .cfa -24 + ^
STACK CFI INIT 98cf0 60 .cfa: $rbp 16 + $rbp: .cfa -16 + ^ .ra: .cfa -8 + ^
STACK CFI INIT 98d50 220 .cfa: $rbp 16 + $rbp: .cfa -16 + ^ .ra: .cfa -8 + ^ $rbx: .cfa -24 + ^
STACK CFI INIT 98f70 620 .cfa: $rbp 16 + $rbp: .cfa -16 + ^ .ra: .cfa -8 + ^ $rbx: .cfa -32 + ^ $r14: .cfa -24 + ^
STACK CFI INIT 99590 800 .cfa: $rbp 16 + $rbp: .cfa -16 + ^ .ra: .cfa -8 + ^ $rbx: .cfa -56 + ^ $r12: .cfa -48 + ^ $r13: .cfa -40 + ^ $r14: .cfa -32 + ^ $r15: .cfa -24 + ^
STACK CFI INIT 99d90 a0 .cfa: $rbp 16 + $rbp: .cfa -16 + ^ .ra: .cfa -8 + ^ $rbx: .cfa -48 + ^ $r12: .cfa -40 + ^ $r14: .cfa -32 + ^ $r15: .cfa -24 + ^
STACK CFI INIT 99e30 2f0 .cfa: $rbp 16 + $rbp: .cfa -16 + ^ .ra: .cfa -8 + ^ $rbx: .cfa -56 + ^ $r12: .cfa -48 + ^ $r13: .cfa -40 + ^ $r14: .cfa -32 + ^ $r15: .cfa -24 + ^
STACK CFI INIT 9a120 150 .cfa: $rbp 16 + $rbp: .cfa -16 + ^ .ra: .cfa -8 + ^ $rbx: .cfa -48 + ^ $r12: .cfa -40 + ^ $r14: .cfa -32 + ^ $r15: .cfa -24 + ^
STACK CFI INIT 9a270 7a0 .cfa: $rbp 16 + $rbp: .cfa -16 + ^ .ra: .cfa -8 + ^ $rbx: .cfa -56 + ^ $r12: .cfa -48 + ^ $r13: .cfa -40 + ^ $r14: .cfa -32 + ^ $r15: .cfa -24 + ^
STACK CFI INIT 9aa10 180 .cfa: $rbp 16 + $rbp: .cfa -16 + ^ .ra: .cfa -8 + ^ $rbx: .cfa -24 + ^
STACK CFI INIT 9ab90 b90 .cfa: $rbp 16 + $rbp: .cfa -16 + ^ .ra: .cfa -8 + ^ $rbx: .cfa -56 + ^ $r12: .cfa -48 + ^ $r13: .cfa -40 + ^ $r14: .cfa -32 + ^ $r15: .cfa -24 + ^
STACK CFI INIT 9b720 300 .cfa: $rbp 16 + $rbp: .cfa -16 + ^ .ra: .cfa -8 + ^ $rbx: .cfa -48 + ^ $r12: .cfa -40 + ^ $r14: .cfa -32 + ^ $r15: .cfa -24 + ^
STACK CFI INIT 9ba20 1c00 .cfa: $rbp 16 + $rbp: .cfa -16 + ^ .ra: .cfa -8 + ^ $rbx: .cfa -56 + ^ $r12: .cfa -48 + ^ $r13: .cfa -40 + ^ $r14: .cfa -32 + ^ $r15: .cfa -24 + ^
STACK CFI INIT 9d620 70 .cfa: $rbp 16 + $rbp: .cfa -16 + ^ .ra: .cfa -8 + ^ $rbx: .cfa -24 + ^
STACK CFI INIT 9d690 10 .cfa: $rbp 16 + $rbp: .cfa -16 + ^ .ra: .cfa -8 + ^
STACK CFI INIT 9d6a0 170 .cfa: $rbp 16 + $rbp: .cfa -16 + ^ .ra: .cfa -8 + ^ $rbx: .cfa -32 + ^ $r14: .cfa -24 + ^
STACK CFI INIT 9d810 a0 .cfa: $rbp 16 + $rbp: .cfa -16 + ^ .ra: .cfa -8 + ^
STACK CFI INIT 9d8b0 80 .cfa: $rbp 16 + $rbp: .cfa -16 + ^ .ra: .cfa -8 + ^ $rbx: .cfa -56 + ^ $r12: .cfa -48 + ^ $r13: .cfa -40 + ^ $r14: .cfa -32 + ^ $r15: .cfa -24 + ^
STACK CFI INIT 9d930 a0 .cfa: $rbp 16 + $rbp: .cfa -16 + ^ .ra: .cfa -8 + ^ $rbx: .cfa -32 + ^ $r14: .cfa -24 + ^
STACK CFI INIT 9d9d0 e0 .cfa: $rbp 16 + $rbp: .cfa -16 + ^ .ra: .cfa -8 + ^
STACK CFI INIT 9dab0 60 .cfa: $rbp 16 + $rbp: .cfa -16 + ^ .ra: .cfa -8 + ^ $rbx: .cfa -48 + ^ $r12: .cfa -40 + ^ $r14: .cfa -32 + ^ $r15: .cfa -24 + ^
STACK CFI INIT 9db10 a0 .cfa: $rbp 16 + $rbp: .cfa -16 + ^ .ra: .cfa -8 + ^ $rbx: .cfa -32 + ^ $r14: .cfa -24 + ^
STACK CFI INIT 9dbb0 90 .cfa: $rbp 16 + $rbp: .cfa -16 + ^ .ra: .cfa -8 + ^ $rbx: .cfa -40 + ^ $r14: .cfa -32 + ^ $r15: .cfa -24 + ^
STACK CFI INIT 9dc40 70 .cfa: $rbp 16 + $rbp: .cfa -16 + ^ .ra: .cfa -8 + ^
STACK CFI INIT 9dcb0 1a0 .cfa: $rbp 16 + $rbp: .cfa -16 + ^ .ra: .cfa -8 + ^ $rbx: .cfa -56 + ^ $r12: .cfa -48 + ^ $r13: .cfa -40 + ^ $r14: .cfa -32 + ^ $r15: .cfa -24 + ^
STACK CFI INIT 9de50 70 .cfa: $rbp 16 + $rbp: .cfa -16 + ^ .ra: .cfa -8 + ^
STACK CFI INIT 9dec0 150 .cfa: $rbp 16 + $rbp: .cfa -16 + ^ .ra: .cfa -8 + ^ $rbx: .cfa -48 + ^ $r12: .cfa -40 + ^ $r14: .cfa -32 + ^ $r15: .cfa -24 + ^
STACK CFI INIT 9e010 f0 .cfa: $rbp 16 + $rbp: .cfa -16 + ^ .ra: .cfa -8 + ^ $rbx: .cfa -40 + ^ $r14: .cfa -32 + ^ $r15: .cfa -24 + ^
STACK CFI INIT 9e100 1d0 .cfa: $rbp 16 + $rbp: .cfa -16 + ^ .ra: .cfa -8 + ^ $rbx: .cfa -40 + ^ $r14: .cfa -32 + ^ $r15: .cfa -24 + ^
STACK CFI INIT 9e2d0 180 .cfa: $rbp 16 + $rbp: .cfa -16 + ^ .ra: .cfa -8 + ^ $rbx: .cfa -56 + ^ $r12: .cfa -48 + ^ $r13: .cfa -40 + ^ $r14: .cfa -32 + ^ $r15: .cfa -24 + ^
STACK CFI INIT 9e450 250 .cfa: $rbp 16 + $rbp: .cfa -16 + ^ .ra: .cfa -8 + ^ $rbx: .cfa -56 + ^ $r12: .cfa -48 + ^ $r13: .cfa -40 + ^ $r14: .cfa -32 + ^ $r15: .cfa -24 + ^
STACK CFI INIT 9e6a0 110 .cfa: $rbp 16 + $rbp: .cfa -16 + ^ .ra: .cfa -8 + ^ $rbx: .cfa -40 + ^ $r14: .cfa -32 + ^ $r15: .cfa -24 + ^
STACK CFI INIT 9e7b0 30 .cfa: $rbp 16 + $rbp: .cfa -16 + ^ .ra: .cfa -8 + ^
STACK CFI INIT 9e7e0 f0 .cfa: $rbp 16 + $rbp: .cfa -16 + ^ .ra: .cfa -8 + ^ $rbx: .cfa -48 + ^ $r12: .cfa -40 + ^ $r14: .cfa -32 + ^ $r15: .cfa -24 + ^
STACK CFI INIT 9e8d0 20 .cfa: $rbp 16 + $rbp: .cfa -16 + ^ .ra: .cfa -8 + ^
STACK CFI INIT 9e8f0 90 .cfa: $rbp 16 + $rbp: .cfa -16 + ^ .ra: .cfa -8 + ^ $rbx: .cfa -40 + ^ $r14: .cfa -32 + ^ $r15: .cfa -24 + ^
STACK CFI INIT 9e980 70 .cfa: $rbp 16 + $rbp: .cfa -16 + ^ .ra: .cfa -8 + ^ $rbx: .cfa -40 + ^ $r14: .cfa -32 + ^ $r15: .cfa -24 + ^
STACK CFI INIT 9e9f0 160 .cfa: $rbp 16 + $rbp: .cfa -16 + ^ .ra: .cfa -8 + ^
STACK CFI INIT 9eb50 210 .cfa: $rbp 16 + $rbp: .cfa -16 + ^ .ra: .cfa -8 + ^ $rbx: .cfa -48 + ^ $r12: .cfa -40 + ^ $r14: .cfa -32 + ^ $r15: .cfa -24 + ^
STACK CFI INIT 9ed60 1e0 .cfa: $rbp 16 + $rbp: .cfa -16 + ^ .ra: .cfa -8 + ^ $rbx: .cfa -24 + ^
STACK CFI INIT 9ef40 330 .cfa: $rbp 16 + $rbp: .cfa -16 + ^ .ra: .cfa -8 + ^ $rbx: .cfa -48 + ^ $r12: .cfa -40 + ^ $r14: .cfa -32 + ^ $r15: .cfa -24 + ^
STACK CFI INIT 9f270 100 .cfa: $rbp 16 + $rbp: .cfa -16 + ^ .ra: .cfa -8 + ^
STACK CFI INIT 9f370 4b0 .cfa: $rbp 16 + $rbp: .cfa -16 + ^ .ra: .cfa -8 + ^ $rbx: .cfa -56 + ^ $r12: .cfa -48 + ^ $r13: .cfa -40 + ^ $r14: .cfa -32 + ^ $r15: .cfa -24 + ^
STACK CFI INIT 9f820 100 .cfa: $rbp 16 + $rbp: .cfa -16 + ^ .ra: .cfa -8 + ^
STACK CFI INIT 9f920 220 .cfa: $rbp 16 + $rbp: .cfa -16 + ^ .ra: .cfa -8 + ^ $rbx: .cfa -24 + ^
STACK CFI INIT 9fb40 330 .cfa: $rbp 16 + $rbp: .cfa -16 + ^ .ra: .cfa -8 + ^ $rbx: .cfa -32 + ^ $r14: .cfa -24 + ^
STACK CFI INIT 9fe70 50 .cfa: $rbp 16 + $rbp: .cfa -16 + ^ .ra: .cfa -8 + ^
STACK CFI INIT 9fec0 80 .cfa: $rbp 16 + $rbp: .cfa -16 + ^ .ra: .cfa -8 + ^ $rbx: .cfa -32 + ^ $r14: .cfa -24 + ^
STACK CFI INIT 9ff40 10 .cfa: $rbp 16 + $rbp: .cfa -16 + ^ .ra: .cfa -8 + ^
STACK CFI INIT 9ff50 50 .cfa: $rbp 16 + $rbp: .cfa -16 + ^ .ra: .cfa -8 + ^ $rbx: .cfa -32 + ^ $r14: .cfa -24 + ^
STACK CFI INIT 9ffa0 100 .cfa: $rbp 16 + $rbp: .cfa -16 + ^ .ra: .cfa -8 + ^
STACK CFI INIT a00a0 c0 .cfa: $rbp 16 + $rbp: .cfa -16 + ^ .ra: .cfa -8 + ^ $rbx: .cfa -40 + ^ $r14: .cfa -32 + ^ $r15: .cfa -24 + ^
STACK CFI INIT a0160 c0 .cfa: $rbp 16 + $rbp: .cfa -16 + ^ .ra: .cfa -8 + ^
STACK CFI INIT a0220 160 .cfa: $rbp 16 + $rbp: .cfa -16 + ^ .ra: .cfa -8 + ^ $rbx: .cfa -56 + ^ $r12: .cfa -48 + ^ $r13: .cfa -40 + ^ $r14: .cfa -32 + ^ $r15: .cfa -24 + ^
STACK CFI INIT a0380 230 .cfa: $rbp 16 + $rbp: .cfa -16 + ^ .ra: .cfa -8 + ^
STACK CFI INIT a05b0 410 .cfa: $rbp 16 + $rbp: .cfa -16 + ^ .ra: .cfa -8 + ^ $rbx: .cfa -56 + ^ $r12: .cfa -48 + ^ $r13: .cfa -40 + ^ $r14: .cfa -32 + ^ $r15: .cfa -24 + ^
STACK CFI INIT a09c0 c0 .cfa: $rbp 16 + $rbp: .cfa -16 + ^ .ra: .cfa -8 + ^ $rbx: .cfa -40 + ^ $r14: .cfa -32 + ^ $r15: .cfa -24 + ^
STACK CFI INIT a0a80 60 .cfa: $rbp 16 + $rbp: .cfa -16 + ^ .ra: .cfa -8 + ^ $rbx: .cfa -24 + ^
STACK CFI INIT a0ae0 160 .cfa: $rbp 16 + $rbp: .cfa -16 + ^ .ra: .cfa -8 + ^ $rbx: .cfa -56 + ^ $r12: .cfa -48 + ^ $r13: .cfa -40 + ^ $r14: .cfa -32 + ^ $r15: .cfa -24 + ^
STACK CFI INIT a0c40 80 .cfa: $rbp 16 + $rbp: .cfa -16 + ^ .ra: .cfa -8 + ^ $rbx: .cfa -40 + ^ $r14: .cfa -32 + ^ $r15: .cfa -24 + ^
STACK CFI INIT a0cc0 130 .cfa: $rbp 16 + $rbp: .cfa -16 + ^ .ra: .cfa -8 + ^ $rbx: .cfa -56 + ^ $r12: .cfa -48 + ^ $r13: .cfa -40 + ^ $r14: .cfa -32 + ^ $r15: .cfa -24 + ^
STACK CFI INIT a0df0 20 .cfa: $rbp 16 + $rbp: .cfa -16 + ^ .ra: .cfa -8 + ^ $rbx: .cfa -24 + ^
STACK CFI INIT a0e10 330 .cfa: $rbp 16 + $rbp: .cfa -16 + ^ .ra: .cfa -8 + ^
STACK CFI INIT a1140 6e0 .cfa: $rbp 16 + $rbp: .cfa -16 + ^ .ra: .cfa -8 + ^ $rbx: .cfa -56 + ^ $r12: .cfa -48 + ^ $r13: .cfa -40 + ^ $r14: .cfa -32 + ^ $r15: .cfa -24 + ^
STACK CFI INIT a1820 60 .cfa: $rbp 16 + $rbp: .cfa -16 + ^ .ra: .cfa -8 + ^ $rbx: .cfa -40 + ^ $r14: .cfa -32 + ^ $r15: .cfa -24 + ^
STACK CFI INIT a1880 3e0 .cfa: $rbp 16 + $rbp: .cfa -16 + ^ .ra: .cfa -8 + ^ $rbx: .cfa -56 + ^ $r12: .cfa -48 + ^ $r13: .cfa -40 + ^ $r14: .cfa -32 + ^ $r15: .cfa -24 + ^
STACK CFI INIT a1c60 b0 .cfa: $rbp 16 + $rbp: .cfa -16 + ^ .ra: .cfa -8 + ^
STACK CFI INIT a1d10 30 .cfa: $rbp 16 + $rbp: .cfa -16 + ^ .ra: .cfa -8 + ^ $rbx: .cfa -32 + ^ $r14: .cfa -24 + ^
STACK CFI INIT a1d40 50 .cfa: $rbp 16 + $rbp: .cfa -16 + ^ .ra: .cfa -8 + ^ $rbx: .cfa -40 + ^ $r14: .cfa -32 + ^ $r15: .cfa -24 + ^
STACK CFI INIT a1d90 40 .cfa: $rbp 16 + $rbp: .cfa -16 + ^ .ra: .cfa -8 + ^ $rbx: .cfa -32 + ^ $r14: .cfa -24 + ^
STACK CFI INIT a1dd0 20 .cfa: $rbp 16 + $rbp: .cfa -16 + ^ .ra: .cfa -8 + ^
STACK CFI INIT a1df0 4b0 .cfa: $rbp 16 + $rbp: .cfa -16 + ^ .ra: .cfa -8 + ^ $rbx: .cfa -56 + ^ $r12: .cfa -48 + ^ $r13: .cfa -40 + ^ $r14: .cfa -32 + ^ $r15: .cfa -24 + ^
STACK CFI INIT a22a0 20 .cfa: $rbp 16 + $rbp: .cfa -16 + ^ .ra: .cfa -8 + ^
STACK CFI INIT a22c0 390 .cfa: $rbp 16 + $rbp: .cfa -16 + ^ .ra: .cfa -8 + ^ $rbx: .cfa -56 + ^ $r12: .cfa -48 + ^ $r13: .cfa -40 + ^ $r14: .cfa -32 + ^ $r15: .cfa -24 + ^
STACK CFI INIT a2650 e0 .cfa: $rbp 16 + $rbp: .cfa -16 + ^ .ra: .cfa -8 + ^
STACK CFI INIT a2730 e0 .cfa: $rbp 16 + $rbp: .cfa -16 + ^ .ra: .cfa -8 + ^ $rbx: .cfa -32 + ^ $r14: .cfa -24 + ^
STACK CFI INIT a2810 230 .cfa: $rbp 16 + $rbp: .cfa -16 + ^ .ra: .cfa -8 + ^ $rbx: .cfa -40 + ^ $r14: .cfa -32 + ^ $r15: .cfa -24 + ^
STACK CFI INIT a2a40 150 .cfa: $rbp 16 + $rbp: .cfa -16 + ^ .ra: .cfa -8 + ^
STACK CFI INIT a2b90 220 .cfa: $rbp 16 + $rbp: .cfa -16 + ^ .ra: .cfa -8 + ^ $rbx: .cfa -40 + ^ $r14: .cfa -32 + ^ $r15: .cfa -24 + ^
STACK CFI INIT a2db0 810 .cfa: $rbp 16 + $rbp: .cfa -16 + ^ .ra: .cfa -8 + ^ $rbx: .cfa -56 + ^ $r12: .cfa -48 + ^ $r13: .cfa -40 + ^ $r14: .cfa -32 + ^ $r15: .cfa -24 + ^
STACK CFI INIT a35c0 240 .cfa: $rbp 16 + $rbp: .cfa -16 + ^ .ra: .cfa -8 + ^
STACK CFI INIT a3800 540 .cfa: $rbp 16 + $rbp: .cfa -16 + ^ .ra: .cfa -8 + ^ $rbx: .cfa -56 + ^ $r12: .cfa -48 + ^ $r13: .cfa -40 + ^ $r14: .cfa -32 + ^ $r15: .cfa -24 + ^
STACK CFI INIT a3d40 20 .cfa: $rbp 16 + $rbp: .cfa -16 + ^ .ra: .cfa -8 + ^
STACK CFI INIT a3d60 1c0 .cfa: $rbp 16 + $rbp: .cfa -16 + ^ .ra: .cfa -8 + ^ $rbx: .cfa -32 + ^ $r14: .cfa -24 + ^
STACK CFI INIT a3f20 100 .cfa: $rbp 16 + $rbp: .cfa -16 + ^ .ra: .cfa -8 + ^ $rbx: .cfa -56 + ^ $r12: .cfa -48 + ^ $r13: .cfa -40 + ^ $r14: .cfa -32 + ^ $r15: .cfa -24 + ^
STACK CFI INIT a4020 430 .cfa: $rbp 16 + $rbp: .cfa -16 + ^ .ra: .cfa -8 + ^
STACK CFI INIT a4450 120 .cfa: $rbp 16 + $rbp: .cfa -16 + ^ .ra: .cfa -8 + ^ $rbx: .cfa -40 + ^ $r14: .cfa -32 + ^ $r15: .cfa -24 + ^
STACK CFI INIT a4570 120 .cfa: $rbp 16 + $rbp: .cfa -16 + ^ .ra: .cfa -8 + ^
STACK CFI INIT a4690 170 .cfa: $rbp 16 + $rbp: .cfa -16 + ^ .ra: .cfa -8 + ^ $rbx: .cfa -32 + ^ $r14: .cfa -24 + ^
STACK CFI INIT a4800 30 .cfa: $rbp 16 + $rbp: .cfa -16 + ^ .ra: .cfa -8 + ^
STACK CFI INIT a4830 20 .cfa: $rbp 16 + $rbp: .cfa -16 + ^ .ra: .cfa -8 + ^ $rbx: .cfa -24 + ^
STACK CFI INIT a4850 d0 .cfa: $rbp 16 + $rbp: .cfa -16 + ^ .ra: .cfa -8 + ^
STACK CFI INIT a4920 b0 .cfa: $rbp 16 + $rbp: .cfa -16 + ^ .ra: .cfa -8 + ^ $rbx: .cfa -32 + ^ $r14: .cfa -24 + ^
STACK CFI INIT a49d0 bb0 .cfa: $rbp 16 + $rbp: .cfa -16 + ^ .ra: .cfa -8 + ^
STACK CFI INIT a5580 140 .cfa: $rbp 16 + $rbp: .cfa -16 + ^ .ra: .cfa -8 + ^ $rbx: .cfa -24 + ^
STACK CFI INIT a56c0 130 .cfa: $rbp 16 + $rbp: .cfa -16 + ^ .ra: .cfa -8 + ^
STACK CFI INIT a57f0 140 .cfa: $rbp 16 + $rbp: .cfa -16 + ^ .ra: .cfa -8 + ^ $rbx: .cfa -24 + ^
STACK CFI INIT a5930 2f0 .cfa: $rbp 16 + $rbp: .cfa -16 + ^ .ra: .cfa -8 + ^
STACK CFI INIT a5c20 f0 .cfa: $rbp 16 + $rbp: .cfa -16 + ^ .ra: .cfa -8 + ^ $rbx: .cfa -32 + ^ $r14: .cfa -24 + ^
STACK CFI INIT a5d10 c0 .cfa: $rbp 16 + $rbp: .cfa -16 + ^ .ra: .cfa -8 + ^
STACK CFI INIT a5dd0 e0 .cfa: $rbp 16 + $rbp: .cfa -16 + ^ .ra: .cfa -8 + ^ $rbx: .cfa -40 + ^ $r14: .cfa -32 + ^ $r15: .cfa -24 + ^
STACK CFI INIT a5eb0 4a0 .cfa: $rbp 16 + $rbp: .cfa -16 + ^ .ra: .cfa -8 + ^
STACK CFI INIT a6350 e0 .cfa: $rbp 16 + $rbp: .cfa -16 + ^ .ra: .cfa -8 + ^ $rbx: .cfa -40 + ^ $r14: .cfa -32 + ^ $r15: .cfa -24 + ^
STACK CFI INIT a6430 40 .cfa: $rsp 8 + .ra: .cfa -8 + ^ $rbp: .cfa -16 + ^
STACK CFI INIT a6470 180 .cfa: $rbp 16 + $rbp: .cfa -16 + ^ .ra: .cfa -8 + ^ $rbx: .cfa -40 + ^ $r14: .cfa -32 + ^ $r15: .cfa -24 + ^
STACK CFI INIT a65f0 a0 .cfa: $rbp 16 + $rbp: .cfa -16 + ^ .ra: .cfa -8 + ^ $rbx: .cfa -24 + ^
STACK CFI INIT a6690 100 .cfa: $rbp 16 + $rbp: .cfa -16 + ^ .ra: .cfa -8 + ^ $rbx: .cfa -24 + ^
STACK CFI INIT a6790 70 .cfa: $rbp 16 + $rbp: .cfa -16 + ^ .ra: .cfa -8 + ^ $rbx: .cfa -32 + ^ $r14: .cfa -24 + ^
STACK CFI INIT a6800 c0 .cfa: $rbp 16 + $rbp: .cfa -16 + ^ .ra: .cfa -8 + ^ $rbx: .cfa -24 + ^
STACK CFI INIT a68c0 b0 .cfa: $rbp 16 + $rbp: .cfa -16 + ^ .ra: .cfa -8 + ^ $rbx: .cfa -24 + ^
STACK CFI INIT a6970 60 .cfa: $rbp 16 + $rbp: .cfa -16 + ^ .ra: .cfa -8 + ^
STACK CFI INIT a69d0 5e0 .cfa: $rbp 16 + $rbp: .cfa -16 + ^ .ra: .cfa -8 + ^ $rbx: .cfa -56 + ^ $r12: .cfa -48 + ^ $r13: .cfa -40 + ^ $r14: .cfa -32 + ^ $r15: .cfa -24 + ^
STACK CFI INIT a6fb0 560 .cfa: $rbp 16 + $rbp: .cfa -16 + ^ .ra: .cfa -8 + ^ $rbx: .cfa -56 + ^ $r12: .cfa -48 + ^ $r13: .cfa -40 + ^ $r14: .cfa -32 + ^ $r15: .cfa -24 + ^
STACK CFI INIT a7510 630 .cfa: $rbp 16 + $rbp: .cfa -16 + ^ .ra: .cfa -8 + ^ $rbx: .cfa -56 + ^ $r12: .cfa -48 + ^ $r13: .cfa -40 + ^ $r14: .cfa -32 + ^ $r15: .cfa -24 + ^
STACK CFI INIT a7b40 660 .cfa: $rbp 16 + $rbp: .cfa -16 + ^ .ra: .cfa -8 + ^ $rbx: .cfa -56 + ^ $r12: .cfa -48 + ^ $r13: .cfa -40 + ^ $r14: .cfa -32 + ^ $r15: .cfa -24 + ^
STACK CFI INIT a81a0 680 .cfa: $rbp 16 + $rbp: .cfa -16 + ^ .ra: .cfa -8 + ^ $rbx: .cfa -56 + ^ $r12: .cfa -48 + ^ $r13: .cfa -40 + ^ $r14: .cfa -32 + ^ $r15: .cfa -24 + ^
STACK CFI INIT a8820 2b0 .cfa: $rbp 16 + $rbp: .cfa -16 + ^ .ra: .cfa -8 + ^ $rbx: .cfa -56 + ^ $r12: .cfa -48 + ^ $r13: .cfa -40 + ^ $r14: .cfa -32 + ^ $r15: .cfa -24 + ^
STACK CFI INIT a8ad0 20 .cfa: $rbp 16 + $rbp: .cfa -16 + ^ .ra: .cfa -8 + ^
STACK CFI INIT a8af0 330 .cfa: $rbp 16 + $rbp: .cfa -16 + ^ .ra: .cfa -8 + ^ $rbx: .cfa -56 + ^ $r12: .cfa -48 + ^ $r13: .cfa -40 + ^ $r14: .cfa -32 + ^ $r15: .cfa -24 + ^
STACK CFI INIT a8e20 100 .cfa: $rbp 16 + $rbp: .cfa -16 + ^ .ra: .cfa -8 + ^ $rbx: .cfa -24 + ^
STACK CFI INIT a8f20 100 .cfa: $rbp 16 + $rbp: .cfa -16 + ^ .ra: .cfa -8 + ^ $rbx: .cfa -32 + ^ $r14: .cfa -24 + ^
STACK CFI INIT a9020 60 .cfa: $rbp 16 + $rbp: .cfa -16 + ^ .ra: .cfa -8 + ^
STACK CFI INIT a9080 60 .cfa: $rbp 16 + $rbp: .cfa -16 + ^ .ra: .cfa -8 + ^ $rbx: .cfa -32 + ^ $r14: .cfa -24 + ^
STACK CFI INIT a90e0 60 .cfa: $rbp 16 + $rbp: .cfa -16 + ^ .ra: .cfa -8 + ^ $rbx: .cfa -32 + ^ $r14: .cfa -24 + ^
STACK CFI INIT a9140 6c0 .cfa: $rbp 16 + $rbp: .cfa -16 + ^ .ra: .cfa -8 + ^ $rbx: .cfa -40 + ^ $r14: .cfa -32 + ^ $r15: .cfa -24 + ^
STACK CFI INIT a9800 a0 .cfa: $rbp 16 + $rbp: .cfa -16 + ^ .ra: .cfa -8 + ^ $rbx: .cfa -32 + ^ $r14: .cfa -24 + ^
STACK CFI INIT a98a0 6c0 .cfa: $rbp 16 + $rbp: .cfa -16 + ^ .ra: .cfa -8 + ^ $rbx: .cfa -56 + ^ $r12: .cfa -48 + ^ $r13: .cfa -40 + ^ $r14: .cfa -32 + ^ $r15: .cfa -24 + ^
STACK CFI INIT a9f60 6c0 .cfa: $rbp 16 + $rbp: .cfa -16 + ^ .ra: .cfa -8 + ^ $rbx: .cfa -56 + ^ $r12: .cfa -48 + ^ $r13: .cfa -40 + ^ $r14: .cfa -32 + ^ $r15: .cfa -24 + ^
STACK CFI INIT aa620 6c0 .cfa: $rbp 16 + $rbp: .cfa -16 + ^ .ra: .cfa -8 + ^ $rbx: .cfa -56 + ^ $r12: .cfa -48 + ^ $r13: .cfa -40 + ^ $r14: .cfa -32 + ^ $r15: .cfa -24 + ^
STACK CFI INIT aace0 6c0 .cfa: $rbp 16 + $rbp: .cfa -16 + ^ .ra: .cfa -8 + ^ $rbx: .cfa -56 + ^ $r12: .cfa -48 + ^ $r13: .cfa -40 + ^ $r14: .cfa -32 + ^ $r15: .cfa -24 + ^
STACK CFI INIT ab3a0 60 .cfa: $rbp 16 + $rbp: .cfa -16 + ^ .ra: .cfa -8 + ^
STACK CFI INIT ab400 60 .cfa: $rbp 16 + $rbp: .cfa -16 + ^ .ra: .cfa -8 + ^ $rbx: .cfa -32 + ^ $r14: .cfa -24 + ^
STACK CFI INIT ab460 780 .cfa: $rbp 16 + $rbp: .cfa -16 + ^ .ra: .cfa -8 + ^ $rbx: .cfa -56 + ^ $r12: .cfa -48 + ^ $r13: .cfa -40 + ^ $r14: .cfa -32 + ^ $r15: .cfa -24 + ^
STACK CFI INIT abbe0 640 .cfa: $rbp 16 + $rbp: .cfa -16 + ^ .ra: .cfa -8 + ^ $rbx: .cfa -56 + ^ $r12: .cfa -48 + ^ $r13: .cfa -40 + ^ $r14: .cfa -32 + ^ $r15: .cfa -24 + ^
STACK CFI INIT ac220 640 .cfa: $rbp 16 + $rbp: .cfa -16 + ^ .ra: .cfa -8 + ^ $rbx: .cfa -56 + ^ $r12: .cfa -48 + ^ $r13: .cfa -40 + ^ $r14: .cfa -32 + ^ $r15: .cfa -24 + ^
STACK CFI INIT ac860 20 .cfa: $rbp 16 + $rbp: .cfa -16 + ^ .ra: .cfa -8 + ^
STACK CFI INIT ac880 c0 .cfa: $rbp 16 + $rbp: .cfa -16 + ^ .ra: .cfa -8 + ^ $rbx: .cfa -40 + ^ $r14: .cfa -32 + ^ $r15: .cfa -24 + ^
STACK CFI INIT ac940 260 .cfa: $rbp 16 + $rbp: .cfa -16 + ^ .ra: .cfa -8 + ^ $rbx: .cfa -32 + ^ $r14: .cfa -24 + ^
STACK CFI INIT acba0 320 .cfa: $rbp 16 + $rbp: .cfa -16 + ^ .ra: .cfa -8 + ^ $rbx: .cfa -48 + ^ $r12: .cfa -40 + ^ $r14: .cfa -32 + ^ $r15: .cfa -24 + ^
STACK CFI INIT acec0 be0 .cfa: $rbp 16 + $rbp: .cfa -16 + ^ .ra: .cfa -8 + ^ $rbx: .cfa -56 + ^ $r12: .cfa -48 + ^ $r13: .cfa -40 + ^ $r14: .cfa -32 + ^ $r15: .cfa -24 + ^
STACK CFI INIT adaa0 2d0 .cfa: $rbp 16 + $rbp: .cfa -16 + ^ .ra: .cfa -8 + ^
STACK CFI INIT add70 350 .cfa: $rbp 16 + $rbp: .cfa -16 + ^ .ra: .cfa -8 + ^ $rbx: .cfa -32 + ^ $r14: .cfa -24 + ^
STACK CFI INIT ae0c0 d0 .cfa: $rbp 16 + $rbp: .cfa -16 + ^ .ra: .cfa -8 + ^
STACK CFI INIT ae190 c0 .cfa: $rbp 16 + $rbp: .cfa -16 + ^ .ra: .cfa -8 + ^ $rbx: .cfa -40 + ^ $r14: .cfa -32 + ^ $r15: .cfa -24 + ^
STACK CFI INIT ae250 a0 .cfa: $rbp 16 + $rbp: .cfa -16 + ^ .ra: .cfa -8 + ^ $rbx: .cfa -32 + ^ $r14: .cfa -24 + ^
STACK CFI INIT ae2f0 240 .cfa: $rbp 16 + $rbp: .cfa -16 + ^ .ra: .cfa -8 + ^ $rbx: .cfa -40 + ^ $r14: .cfa -32 + ^ $r15: .cfa -24 + ^
STACK CFI INIT ae530 100 .cfa: $rbp 16 + $rbp: .cfa -16 + ^ .ra: .cfa -8 + ^ $rbx: .cfa -56 + ^ $r12: .cfa -48 + ^ $r13: .cfa -40 + ^ $r14: .cfa -32 + ^ $r15: .cfa -24 + ^
STACK CFI INIT ae630 b0 .cfa: $rbp 16 + $rbp: .cfa -16 + ^ .ra: .cfa -8 + ^ $rbx: .cfa -48 + ^ $r12: .cfa -40 + ^ $r14: .cfa -32 + ^ $r15: .cfa -24 + ^
STACK CFI INIT ae6e0 10 .cfa: $rbp 16 + $rbp: .cfa -16 + ^ .ra: .cfa -8 + ^
STACK CFI INIT ae6f0 3e0 .cfa: $rbp 16 + $rbp: .cfa -16 + ^ .ra: .cfa -8 + ^ $rbx: .cfa -56 + ^ $r12: .cfa -48 + ^ $r13: .cfa -40 + ^ $r14: .cfa -32 + ^ $r15: .cfa -24 + ^
STACK CFI INIT aead0 60 .cfa: $rbp 16 + $rbp: .cfa -16 + ^ .ra: .cfa -8 + ^
STACK CFI INIT aeb30 150 .cfa: $rbp 16 + $rbp: .cfa -16 + ^ .ra: .cfa -8 + ^ $rbx: .cfa -56 + ^ $r12: .cfa -48 + ^ $r13: .cfa -40 + ^ $r14: .cfa -32 + ^ $r15: .cfa -24 + ^
STACK CFI INIT aec80 100 .cfa: $rbp 16 + $rbp: .cfa -16 + ^ .ra: .cfa -8 + ^ $rbx: .cfa -56 + ^ $r12: .cfa -48 + ^ $r13: .cfa -40 + ^ $r14: .cfa -32 + ^ $r15: .cfa -24 + ^
STACK CFI INIT aed80 b0 .cfa: $rbp 16 + $rbp: .cfa -16 + ^ .ra: .cfa -8 + ^
STACK CFI INIT aee30 a0 .cfa: $rbp 16 + $rbp: .cfa -16 + ^ .ra: .cfa -8 + ^ $rbx: .cfa -32 + ^ $r14: .cfa -24 + ^
STACK CFI INIT aeed0 80 .cfa: $rbp 16 + $rbp: .cfa -16 + ^ .ra: .cfa -8 + ^
STACK CFI INIT aef50 a0 .cfa: $rbp 16 + $rbp: .cfa -16 + ^ .ra: .cfa -8 + ^ $rbx: .cfa -32 + ^ $r14: .cfa -24 + ^
STACK CFI INIT aeff0 1c0 .cfa: $rbp 16 + $rbp: .cfa -16 + ^ .ra: .cfa -8 + ^
STACK CFI INIT af1b0 70 .cfa: $rbp 16 + $rbp: .cfa -16 + ^ .ra: .cfa -8 + ^
STACK CFI INIT af220 211 .cfa: $rbp 16 + $rbp: .cfa -16 + ^ .ra: .cfa -8 + ^
STACK CFI INIT ca10 5 .cfa: $rsp 8 + .ra: .cfa -8 + ^
STACK CFI INIT ca20 5 .cfa: $rsp 8 + .ra: .cfa -8 + ^
STACK CFI INIT ca30 5 .cfa: $rsp 8 + .ra: .cfa -8 + ^
STACK CFI INIT ca40 5 .cfa: $rsp 8 + .ra: .cfa -8 + ^
STACK CFI INIT a6430 39 .cfa: $rsp 8 + .ra: .cfa -8 + ^
STACK CFI a6431 .cfa: $rsp 16 + $rbp: .cfa -16 + ^
STACK CFI a6434 .cfa: $rbp 16 +
STACK CFI a6468 .cfa: $rsp 8 +
